
boot0.bin:     file format binary


Disassembly of section .data:

00000000 <.data>:
       0:	ea0000b0 	b	_start
       4:	Magic     : eGON.BT0
      10:	Length    : 24576
      14:	HSize     : 48
      18:	HEAD ver  : 1100
      1c:	FILE ver  : 1230
      20:	BOOT ver  : 1230
      24:	eGON ver  : 1100
      28:	platform  : \11.3.0\0\0
      30:	FHSize    : 664
      34:	FILE ver  : 1230
      38:	DRAM base : 0x40000000
      3c:	DRAM clk  : 408
      40:	DRAM type : 3
      44:	DRAM rank : 1
      48:	DRAM den  : 4096
      4c:	DRAM iow  : 16
      50:	DRAM busw : 16
      54:	DRAM cas  : 9
      58:	DRAM zq   : 123
      5c:	DRAM odt  : 0x0
      60:	DRAM size : 512
      64:	DRAM tpr0 : 0x42d899b7
      68:	DRAM tpr1 : 0xa090
      6c:	DRAM tpr2 : 0x22a00
      70:	DRAM tpr3 : 0x0
      74:	DRAM tpr4 : 0x0
      78:	DRAM tpr5 : 0x0
      7c:	DRAM emr1 : 0x0
      80:	DRAM emr2 : 0x10
      84:	DRAM emr3 : 0x0
      88:	UART port : 1
      8c:	 GPIO 0   : port=G3, sel=4, pull=1, drv=255, data=255, reserved=00,00
      94:	 GPIO 1   : port=G4, sel=4, pull=1, drv=255, data=255, reserved=00,00
      9c:	JTAG en   : 0
      a0:	 GPIO 0   : port=F0, sel=4, pull=1, drv=255, data=255, reserved=00,00
      a8:	 GPIO 1   : port=F5, sel=4, pull=1, drv=255, data=255, reserved=00,00
      b0:	 GPIO 2   : port=F3, sel=4, pull=1, drv=255, data=255, reserved=00,00
      b8:	 GPIO 3   : port=F1, sel=4, pull=1, drv=255, data=255, reserved=00,00
      c8:	STORAGE   :
      c8:	 GPIO 0   : port=C0, sel=2, pull=255, drv=255, data=255, reserved=00,00
      d0:	 GPIO 1   : port=C1, sel=2, pull=255, drv=255, data=255, reserved=00,00
      d8:	 GPIO 2   : port=C2, sel=2, pull=255, drv=255, data=255, reserved=00,00
      e0:	 GPIO 3   : port=C3, sel=2, pull=255, drv=255, data=255, reserved=00,00
      e8:	 GPIO 4   : port=C4, sel=2, pull=255, drv=255, data=255, reserved=00,00
      f0:	 GPIO 5   : port=C5, sel=2, pull=255, drv=255, data=255, reserved=00,00
      f8:	 GPIO 6   : port=C6, sel=2, pull=255, drv=255, data=255, reserved=00,00
     100:	 GPIO 7   : port=C7, sel=2, pull=255, drv=255, data=255, reserved=00,00
     108:	 GPIO 8   : port=C8, sel=2, pull=255, drv=255, data=255, reserved=00,00
     110:	 GPIO 9   : port=C9, sel=2, pull=255, drv=255, data=255, reserved=00,00
     118:	 GPIO 10   : port=C10, sel=2, pull=255, drv=255, data=255, reserved=00,00
     120:	 GPIO 11   : port=C11, sel=2, pull=255, drv=255, data=255, reserved=00,00
     128:	 GPIO 12   : port=C12, sel=2, pull=255, drv=255, data=255, reserved=00,00
     130:	 GPIO 13   : port=C13, sel=2, pull=255, drv=255, data=255, reserved=00,00
     138:	 GPIO 14   : port=C14, sel=2, pull=255, drv=255, data=255, reserved=00,00
     140:	 GPIO 15   : port=C15, sel=2, pull=255, drv=255, data=255, reserved=00,00
     148:	 GPIO 16   : port=C19, sel=2, pull=255, drv=255, data=255, reserved=00,00
     1c8:	 DATA 00  : 01 00 01 00 01 01 01 01 01 02 10 00 00 01 00 08
     1d8:	 DATA 10  : 88 01 0f 03 ad d7 94 da ff ff ff ff b6 03 00 00
     1e8:	 DATA 20  : b6 03 00 00 04 06 01 00 00 00 00 00 00 00 00 00
     1f8:	 DATA 30  : 00 00 00 00 00 00 00 00 00 00 00 00 00 00 00 00
     208:	 DATA 40  : 00 00 00 00 00 00 00 00 00 00 00 00 00 00 00 00
     218:	 DATA 50  : 00 00 00 00 00 00 00 00 00 00 00 00 00 00 00 00
     228:	 DATA 60  : 00 00 00 00 00 00 00 00 00 00 00 00 00 00 00 00
     238:	 DATA 70  : 00 00 00 00 00 00 00 00 00 00 00 00 00 00 00 00
     248:	 DATA 80  : 00 00 00 00 00 00 00 00 00 00 00 00 00 00 00 00
     258:	 DATA 90  : 00 00 00 00 00 00 00 00 00 00 00 00 00 00 00 00
     268:	 DATA a0  : 00 00 00 00 00 00 00 00 00 00 00 00 00 00 00 00
     278:	 DATA b0  : 00 00 00 00 00 00 00 00 00 00 00 00 00 00 00 00
     288:	 DATA c0  : 00 00 00 00 00 00 00 00 00 00 00 00 00 00 00 00
     298:	 DATA d0  : 00 00 00 00 00 00 00 00 00 00 00 00 00 00 00 00
     2a8:	 DATA e0  : 00 00 00 00 00 00 00 00 00 00 00 00 00 00 00 00
     2b8:	 DATA f0  : 00 00 00 00 00 00 00 00 00 00 00 00 00 00 00 00

_start
     2c8:	e10f0000 	mrs	r0, CPSR
     2cc:	e3c0001f 	bic	r0, r0, #31
     2d0:	e3800013 	orr	r0, r0, #19
     2d4:	e38000c0 	orr	r0, r0, #192	; 0xc0
     2d8:	e3c00c02 	bic	r0, r0, #512	; 0x200
     2dc:	e121f000 	msr	CPSR_c, r0
     2e0:	ee110f10 	mrc	15, 0, r0, cr1, cr0, {0}
     2e4:	e3c00005 	bic	r0, r0, #5
     2e8:	e3c00b06 	bic	r0, r0, #6144	; 0x1800
     2ec:	e3c00002 	bic	r0, r0, #2
     2f0:	ee010f10 	mcr	15, 0, r0, cr1, cr0, {0}
     2f4:	eb0002cd 	bl	0xe30
     2f8:	e3a0d902 	mov	sp, #32768	; 0x8000
     2fc:	eb000293 	bl	0xd50
     300:	eafffffe 	b	0x300

     304:	e92d40fe 	push	{r1, r2, r3, r4, r5, r6, r7, lr}
     308:	eb00014e 	bl	0x848
     30c:	e28f0e1a 	adr	r0, 0x4b4
     310:	eb000328 	bl	0xfb8
     314:	e3a04002 	mov	r4, #2
     318:	ea00005a 	b	0x488
     31c:	e1a00004 	mov	r0, r4
     320:	eb000245 	bl	0xc3c
     324:	e3500003 	cmp	r0, #3
     328:	1a000000 	bne	0x330
     32c:	ea000054 	b	0x484
     330:	e59f119c 	ldr	r1, =0x4d4
     334:	e5911000 	ldr	r1, [r1]
     338:	e2411009 	sub	r1, r1, #9
     33c:	e1a00114 	lsl	r0, r4, r1
     340:	e3a02001 	mov	r2, #1
     344:	e59f118c 	ldr	r1, =0x4d8
     348:	eb0001d7 	bl	0xaac
     34c:	e3500001 	cmp	r0, #1
     350:	1a000000 	bne	0x358
     354:	ea00004a 	b	0x484
     358:	e28f0f5f 	adr	r0, 0x4dc
     35c:	eb000315 	bl	0xfb8
     360:	e28f1f67 	adr	r1, 0x504
     364:	e59f016c 	ldr	r0, =0x4d8
     368:	eb000472 	bl	0x1538
     36c:	e3500000 	cmp	r0, #0
     370:	0a000003 	beq	0x384
     374:	e1a01004 	mov	r1, r4
     378:	e28f0e19 	adr	r0, 0x510
     37c:	eb00030d 	bl	0xfb8
     380:	ea00003f 	b	0x484
     384:	e59f614c 	ldr	r6, =0x4d8
     388:	e5965010 	ldr	r5, [r6, #16]
     38c:	e1a00005 	mov	r0, r5
     390:	e7df049f 	bfc	r0, #9, #23
     394:	e3500000 	cmp	r0, #0
     398:	0a000000 	beq	0x3a0
     39c:	ea000038 	b	0x484
     3a0:	e1a01005 	mov	r1, r5
     3a4:	e28f0f66 	adr	r0, 0x544
     3a8:	eb000302 	bl	0xfb8
     3ac:	e59f01ac 	ldr	r0, =0x560
     3b0:	e5900000 	ldr	r0, [r0]
     3b4:	e1550000 	cmp	r5, r0
     3b8:	8a000012 	bhi	0x408
     3bc:	e28f3d05 	adr	r3, 0x504
     3c0:	e59f0198 	ldr	r0, =0x560
     3c4:	e58d3000 	str	r3, [sp]
     3c8:	e1a02005 	mov	r2, r5
     3cc:	e5903000 	ldr	r3, [r0]
     3d0:	e59f1100 	ldr	r1, =0x4d8
     3d4:	e1a00004 	mov	r0, r4
     3d8:	eb000087 	bl	0x5fc
     3dc:	e1a07000 	mov	r7, r0
     3e0:	e3570003 	cmp	r7, #3
     3e4:	1a000000 	bne	0x3ec
     3e8:	ea000025 	b	0x484
     3ec:	e3570000 	cmp	r7, #0
     3f0:	1a000022 	bne	0x480
     3f4:	e28f0f5a 	adr	r0, 0x564
     3f8:	eb0002ee 	bl	0xfb8
     3fc:	eb0001a2 	bl	0xa8c
     400:	e3a00000 	mov	r0, #0
     404:	e8bd80fe 	pop	{r1, r2, r3, r4, r5, r6, r7, pc}
     408:	e28d3008 	add	r3, sp, #8
     40c:	e59f014c 	ldr	r0, =0x560
     410:	e5902000 	ldr	r2, [r0]
     414:	e1cd20f0 	strd	r2, [sp]
     418:	e1a03005 	mov	r3, r5
     41c:	e59f20b4 	ldr	r2, =0x4d8
     420:	e59f0150 	ldr	r0, =0x578
     424:	e5901000 	ldr	r1, [r0]
     428:	e1a00004 	mov	r0, r4
     42c:	eb00009e 	bl	0x6ac
     430:	e1a07000 	mov	r7, r0
     434:	e3570004 	cmp	r7, #4
     438:	1a000002 	bne	0x448
     43c:	eb000192 	bl	0xa8c
     440:	e3a00001 	mov	r0, #1
     444:	eaffffee 	b	0x404
     448:	e3570003 	cmp	r7, #3
     44c:	1a000000 	bne	0x454
     450:	ea00000b 	b	0x484
     454:	e1a01005 	mov	r1, r5
     458:	e59f0078 	ldr	r0, =0x4d8
     45c:	eb000448 	bl	0x1584
     460:	e3500000 	cmp	r0, #0
     464:	1a000005 	bne	0x480
     468:	e1a01004 	mov	r1, r4
     46c:	e28f0f42 	adr	r0, 0x57c
     470:	eb0002d0 	bl	0xfb8
     474:	eb000184 	bl	0xa8c
     478:	e3a00000 	mov	r0, #0
     47c:	eaffffe0 	b	0x404
     480:	e320f000 	nop	{0}
     484:	e2844001 	add	r4, r4, #1
     488:	e59f00e8 	ldr	r0, =0x578
     48c:	e5900000 	ldr	r0, [r0]
     490:	e1540000 	cmp	r4, r0
     494:	9affffa0 	bls	0x31c
     498:	e28f0f43 	adr	r0, 0x5ac
     49c:	eb0002c5 	bl	0xfb8
     4a0:	eb000179 	bl	0xa8c
     4a4:	e28f0f4a 	adr	r0, 0x5d4
     4a8:	eb0002c2 	bl	0xfb8
     4ac:	e3a00001 	mov	r0, #1
     4b0:	eaffffd3 	b	0x404

     4b4:	"Succeed in opening nand flash.\n",0

     4d4:	00005aec
     4d8:	42400000

     4dc:	"Succeed in reading Boot1 file head.\n",0
     504:	"eGON.BT1",0
     510:	"ERROR! block %u doesn't store head of Boot1 copy.\n",0
     544:	"@The size of Boot1 is %x.\n",0

     560:	00005ae8

     564:	"Check is correct.\n",0

     578:	00005af8

     57c:	"The file stored in start block %u is perfect.\n",0
     5ac:	"Can't find a good Boot1 copy in nand.\n",0
     5d4:	"Ready to quit \"load_Boot1_from_nand\".\n",0

     5fc:	e92d4ff8 	push	{r3, r4, r5, r6, r7, r8, r9, sl, fp, lr}
     600:	e1a04000 	mov	r4, r0
     604:	e1a05001 	mov	r5, r1
     608:	e1a06002 	mov	r6, r2
     60c:	e1a07003 	mov	r7, r3
     610:	e00b0794 	mul	fp, r4, r7
     614:	e1a0800b 	mov	r8, fp
     618:	e0889006 	add	r9, r8, r6
     61c:	e1a0800b 	mov	r8, fp
     620:	e08ba007 	add	sl, fp, r7
     624:	ea00001c 	b	0x69c
     628:	e1a024a6 	lsr	r2, r6, #9
     62c:	e1a004a8 	lsr	r0, r8, #9
     630:	e1a01005 	mov	r1, r5
     634:	eb00011c 	bl	0xaac
     638:	e58d0000 	str	r0, [sp]
     63c:	e59d0000 	ldr	r0, [sp]
     640:	e3500001 	cmp	r0, #1
     644:	1a000001 	bne	0x650
     648:	e3a00003 	mov	r0, #3
     64c:	e8bd8ff8 	pop	{r3, r4, r5, r6, r7, r8, r9, sl, fp, pc}
     650:	e59d0000 	ldr	r0, [sp]
     654:	e3500002 	cmp	r0, #2
     658:	1a000000 	bne	0x660
     65c:	ea00000c 	b	0x694
     660:	e1a01006 	mov	r1, r6
     664:	e1a00005 	mov	r0, r5
     668:	e59d2028 	ldr	r2, [sp, #40]	; 0x28
     66c:	eb0003e9 	bl	0x1618
     670:	e3500000 	cmp	r0, #0
     674:	1a000005 	bne	0x690
     678:	e048100b 	sub	r1, r8, fp
     67c:	e1a02004 	mov	r2, r4
     680:	e28f0e13 	adr	r0, 0x7b8
     684:	eb00024b 	bl	0xfb8
     688:	e3a00000 	mov	r0, #0
     68c:	eaffffee 	b	0x64c
     690:	e320f000 	nop	{0}
     694:	e0888006 	add	r8, r8, r6
     698:	e0889006 	add	r9, r8, r6
     69c:	e159000a 	cmp	r9, sl
     6a0:	9affffe0 	bls	0x628
     6a4:	e3a00001 	mov	r0, #1
     6a8:	eaffffe7 	b	0x64c

     6ac:	e92d5fff 	push	{r0, r1, r2, r3, r4, r5, r6, r7, r8, r9, sl, fp, ip, lr}
     6b0:	e1a04000 	mov	r4, r0
     6b4:	e1a05001 	mov	r5, r1
     6b8:	e1a06002 	mov	r6, r2
     6bc:	e1a07003 	mov	r7, r3
     6c0:	e1cd83d8 	ldrd	r8, [sp, #56]	; 0x38
     6c4:	e58d4000 	str	r4, [sp]
     6c8:	e58d600c 	str	r6, [sp, #12]
     6cc:	e3a0a000 	mov	sl, #0
     6d0:	ea000026 	b	0x770
     6d4:	e1a02005 	mov	r2, r5
     6d8:	e28f0f42 	adr	r0, 0x7e8
     6dc:	e59d1000 	ldr	r1, [sp]
     6e0:	eb000234 	bl	0xfb8
     6e4:	e59d0000 	ldr	r0, [sp]
     6e8:	eb000153 	bl	0xc3c
     6ec:	e3500003 	cmp	r0, #3
     6f0:	1a000000 	bne	0x6f8
     6f4:	ea00001a 	b	0x764
     6f8:	e59d0000 	ldr	r0, [sp]
     6fc:	e0000890 	mul	r0, r0, r8
     700:	e58d0008 	str	r0, [sp, #8]
     704:	e047000a 	sub	r0, r7, sl
     708:	e58d0004 	str	r0, [sp, #4]
     70c:	e59d0004 	ldr	r0, [sp, #4]
     710:	e1500008 	cmp	r0, r8
     714:	2a000001 	bcs	0x720
     718:	e59d0004 	ldr	r0, [sp, #4]
     71c:	ea000000 	b	0x724
     720:	e1a00008 	mov	r0, r8
     724:	e1a0b000 	mov	fp, r0
     728:	e1a024ab 	lsr	r2, fp, #9
     72c:	e59d1008 	ldr	r1, [sp, #8]
     730:	e1a004a1 	lsr	r0, r1, #9
     734:	e59d100c 	ldr	r1, [sp, #12]
     738:	eb0000db 	bl	0xaac
     73c:	e3500001 	cmp	r0, #1
     740:	1a000002 	bne	0x750
     744:	e3a00003 	mov	r0, #3
     748:	e28dd010 	add	sp, sp, #16
     74c:	e8bd9ff0 	pop	{r4, r5, r6, r7, r8, r9, sl, fp, ip, pc}
     750:	e59d000c 	ldr	r0, [sp, #12]
     754:	e080000b 	add	r0, r0, fp
     758:	e58d000c 	str	r0, [sp, #12]
     75c:	e08aa00b 	add	sl, sl, fp
     760:	e320f000 	nop	{0}
     764:	e59d0000 	ldr	r0, [sp]
     768:	e2800001 	add	r0, r0, #1
     76c:	e58d0000 	str	r0, [sp]
     770:	e59d0000 	ldr	r0, [sp]
     774:	e1500005 	cmp	r0, r5
     778:	8a000001 	bhi	0x784
     77c:	e15a0007 	cmp	sl, r7
     780:	3affffd3 	bcc	0x6d4
     784:	e59d0000 	ldr	r0, [sp]
     788:	e0400004 	sub	r0, r0, r4
     78c:	e5890000 	str	r0, [r9]
     790:	e15a0007 	cmp	sl, r7
     794:	1a000001 	bne	0x7a0
     798:	e3a00000 	mov	r0, #0
     79c:	eaffffe9 	b	0x748
     7a0:	e1a02007 	mov	r2, r7
     7a4:	e1a01004 	mov	r1, r4
     7a8:	e28f0064 	adr	r0, 0x814
     7ac:	eb000201 	bl	0xfb8
     7b0:	e3a00004 	mov	r0, #4
     7b4:	eaffffe3 	b	0x748

     7b8:	"The file stored in %X of block %u is perfect.\n",0
     7e8:	"current block is %d and last block is %d.\n",0
     814:	"lack blocks with start block %d and buf size %x.\n",0

     848:	e92d4010 	push	{r4, lr}
     84c:	e24dd018 	sub	sp, sp, #24
     850:	eb000579 	bl	0x1e3c
     854:	e3700001 	cmn	r0, #1
     858:	1a000002 	bne	0x868
     85c:	e3e00000 	mvn	r0, #0
     860:	e28dd018 	add	sp, sp, #24
     864:	e8bd8010 	pop	{r4, pc}
     868:	e28d0004 	add	r0, sp, #4
     86c:	eb00055d 	bl	0x1de8
     870:	e3700001 	cmn	r0, #1
     874:	1a000002 	bne	0x884
     878:	e28f0f77 	adr	r0, 0xa5c
     87c:	eb0001cd 	bl	0xfb8
     880:	ea000071 	b	0xa4c
     884:	e59f11e8 	ldr	r1, =0xa74
     888:	e59d0014 	ldr	r0, [sp, #20]
     88c:	e5810000 	str	r0, [r1]
     890:	e59d000c 	ldr	r0, [sp, #12]
     894:	e1a00480 	lsl	r0, r0, #9
     898:	e59f11d8 	ldr	r1, =0xa78
     89c:	e5810000 	str	r0, [r1]
     8a0:	e2810000 	add	r0, r1, #0
     8a4:	e5900000 	ldr	r0, [r0]
     8a8:	e3500701 	cmp	r0, #262144	; 0x40000
     8ac:	0a000020 	beq	0x934
     8b0:	ca000006 	bgt	0x8d0
     8b4:	e3500901 	cmp	r0, #16384	; 0x4000
     8b8:	0a00000b 	beq	0x8ec
     8bc:	e3500902 	cmp	r0, #32768	; 0x8000
     8c0:	0a00000f 	beq	0x904
     8c4:	e3500802 	cmp	r0, #131072	; 0x20000
     8c8:	1a000031 	bne	0x994
     8cc:	ea000012 	b	0x91c
     8d0:	e3500702 	cmp	r0, #524288	; 0x80000
     8d4:	0a00001c 	beq	0x94c
     8d8:	e3500601 	cmp	r0, #1048576	; 0x100000
     8dc:	0a000020 	beq	0x964
     8e0:	e3500602 	cmp	r0, #2097152	; 0x200000
     8e4:	1a00002a 	bne	0x994
     8e8:	ea000023 	b	0x97c
     8ec:	e320f000 	nop	{0}
     8f0:	e3a0000e 	mov	r0, #14
     8f4:	e59f1180 	ldr	r1, =0xa7c
     8f8:	e5810000 	str	r0, [r1]
     8fc:	e3a04020 	mov	r4, #32
     900:	ea000025 	b	0x99c
     904:	e320f000 	nop	{0}
     908:	e3a0000f 	mov	r0, #15
     90c:	e59f1168 	ldr	r1, =0xa7c
     910:	e5810000 	str	r0, [r1]
     914:	e3a04008 	mov	r4, #8
     918:	ea00001f 	b	0x99c
     91c:	e320f000 	nop	{0}
     920:	e3a00011 	mov	r0, #17
     924:	e59f1150 	ldr	r1, =0xa7c
     928:	e5810000 	str	r0, [r1]
     92c:	e3a04005 	mov	r4, #5
     930:	ea000019 	b	0x99c
     934:	e320f000 	nop	{0}
     938:	e3a00012 	mov	r0, #18
     93c:	e59f1138 	ldr	r1, =0xa7c
     940:	e5810000 	str	r0, [r1]
     944:	e3a04005 	mov	r4, #5
     948:	ea000013 	b	0x99c
     94c:	e320f000 	nop	{0}
     950:	e3a00013 	mov	r0, #19
     954:	e59f1120 	ldr	r1, =0xa7c
     958:	e5810000 	str	r0, [r1]
     95c:	e3a04005 	mov	r4, #5
     960:	ea00000d 	b	0x99c
     964:	e320f000 	nop	{0}
     968:	e3a00014 	mov	r0, #20
     96c:	e59f1108 	ldr	r1, =0xa7c
     970:	e5810000 	str	r0, [r1]
     974:	e3a04005 	mov	r4, #5
     978:	ea000007 	b	0x99c
     97c:	e320f000 	nop	{0}
     980:	e3a00015 	mov	r0, #21
     984:	e59f10f0 	ldr	r1, =0xa7c
     988:	e5810000 	str	r0, [r1]
     98c:	e3a04005 	mov	r4, #5
     990:	ea000001 	b	0x99c
     994:	e320f000 	nop	{0}
     998:	ea00002b 	b	0xa4c
     99c:	e320f000 	nop	{0}
     9a0:	e2840001 	add	r0, r4, #1
     9a4:	e59f10d4 	ldr	r1, =0xa80
     9a8:	e5810000 	str	r0, [r1]
     9ac:	e59d0010 	ldr	r0, [sp, #16]
     9b0:	e1a00480 	lsl	r0, r0, #9
     9b4:	e59f10c8 	ldr	r1, =0xa84
     9b8:	e5810000 	str	r0, [r1]
     9bc:	e2810000 	add	r0, r1, #0
     9c0:	e5900000 	ldr	r0, [r0]
     9c4:	e3500c02 	cmp	r0, #512	; 0x200
     9c8:	0a000006 	beq	0x9e8
     9cc:	e3500b02 	cmp	r0, #2048	; 0x800
     9d0:	0a000009 	beq	0x9fc
     9d4:	e3500a01 	cmp	r0, #4096	; 0x1000
     9d8:	0a00000c 	beq	0xa10
     9dc:	e3500a02 	cmp	r0, #8192	; 0x2000
     9e0:	1a000014 	bne	0xa38
     9e4:	ea00000e 	b	0xa24
     9e8:	e320f000 	nop	{0}
     9ec:	e3a00009 	mov	r0, #9
     9f0:	e59f1090 	ldr	r1, =0xa88
     9f4:	e5810000 	str	r0, [r1]
     9f8:	ea000010 	b	0xa40
     9fc:	e320f000 	nop	{0}
     a00:	e3a0000b 	mov	r0, #11
     a04:	e59f107c 	ldr	r1, =0xa88
     a08:	e5810000 	str	r0, [r1]
     a0c:	ea00000b 	b	0xa40
     a10:	e320f000 	nop	{0}
     a14:	e3a0000c 	mov	r0, #12
     a18:	e59f1068 	ldr	r1, =0xa88
     a1c:	e5810000 	str	r0, [r1]
     a20:	ea000006 	b	0xa40
     a24:	e320f000 	nop	{0}
     a28:	e3a0000d 	mov	r0, #13
     a2c:	e59f1054 	ldr	r1, =0xa88
     a30:	e5810000 	str	r0, [r1]
     a34:	ea000001 	b	0xa40
     a38:	e320f000 	nop	{0}
     a3c:	ea000002 	b	0xa4c
     a40:	e320f000 	nop	{0}
     a44:	e3a00000 	mov	r0, #0
     a48:	eaffff84 	b	0x860
     a4c:	e320f000 	nop	{0}
     a50:	eb00050f 	bl	0x1e94
     a54:	e3e00000 	mvn	r0, #0
     a58:	eaffff80 	b	0x860

     a5c:	"get flash info failed.\n",0

     a74:	00005afc
     a78:	00005ae8
     a7c:	00005aec
     a80:	00005af8
     a84:	00005af0
     a88:	00005af4

     a8c:	e92d4010 	push	{r4, lr}
     a90:	eb0004ff 	bl	0x1e94
     a94:	e3700001 	cmn	r0, #1
     a98:	1a000001 	bne	0xaa4
     a9c:	e3e00000 	mvn	r0, #0
     aa0:	e8bd8010 	pop	{r4, pc}
     aa4:	e3a00000 	mov	r0, #0
     aa8:	eafffffc 	b	0xaa0
     aac:	e92d4ff0 	push	{r4, r5, r6, r7, r8, r9, sl, fp, lr}
     ab0:	e24dd06c 	sub	sp, sp, #108	; 0x6c
     ab4:	e1a04000 	mov	r4, r0
     ab8:	e1a05001 	mov	r5, r1
     abc:	e1a06002 	mov	r6, r2
     ac0:	e51f0044 	ldr	r0, =0xa84
     ac4:	e5900000 	ldr	r0, [r0]
     ac8:	e1a074a0 	lsr	r7, r0, #9
     acc:	e3a00000 	mov	r0, #0
     ad0:	e5cd005c 	strb	r0, [sp, #92]	; 0x5c
     ad4:	e51f0064 	ldr	r0, =0xa78
     ad8:	e5900000 	ldr	r0, [r0]
     adc:	e1a014a0 	lsr	r1, r0, #9
     ae0:	e28d2008 	add	r2, sp, #8
     ae4:	e1a00004 	mov	r0, r4
     ae8:	eb0002dd 	bl	0x1664
     aec:	e58d000c 	str	r0, [sp, #12]
     af0:	e59d0008 	ldr	r0, [sp, #8]
     af4:	e6ff0070 	uxth	r0, r0
     af8:	e1cd05be 	strh	r0, [sp, #94]	; 0x5e
     afc:	e51f0080 	ldr	r0, =0xa84
     b00:	e5900000 	ldr	r0, [r0]
     b04:	e1a014a0 	lsr	r1, r0, #9
     b08:	e28d2010 	add	r2, sp, #16
     b0c:	e59d000c 	ldr	r0, [sp, #12]
     b10:	eb0002d3 	bl	0x1664
     b14:	e3500000 	cmp	r0, #0
     b18:	0a000002 	beq	0xb28
     b1c:	e3e00000 	mvn	r0, #0
     b20:	e28dd06c 	add	sp, sp, #108	; 0x6c
     b24:	e8bd8ff0 	pop	{r4, r5, r6, r7, r8, r9, sl, fp, pc}
     b28:	e28d001c 	add	r0, sp, #28
     b2c:	e58d0068 	str	r0, [sp, #104]	; 0x68
     b30:	e28d2018 	add	r2, sp, #24
     b34:	e1a01007 	mov	r1, r7
     b38:	e1a00006 	mov	r0, r6
     b3c:	eb0002c8 	bl	0x1664
     b40:	e58d0014 	str	r0, [sp, #20]
     b44:	e3a08000 	mov	r8, #0
     b48:	ea00000e 	b	0xb88
     b4c:	e51f00d0 	ldr	r0, =0xa84
     b50:	e5900000 	ldr	r0, [r0]
     b54:	e0205890 	mla	r0, r0, r8, r5
     b58:	e58d0064 	str	r0, [sp, #100]	; 0x64
     b5c:	e59d0010 	ldr	r0, [sp, #16]
     b60:	e0800008 	add	r0, r0, r8
     b64:	e6ff0070 	uxth	r0, r0
     b68:	e1cd06b0 	strh	r0, [sp, #96]	; 0x60
     b6c:	e28d005c 	add	r0, sp, #92	; 0x5c
     b70:	eb0004cc 	bl	0x1ea8
     b74:	e3700001 	cmn	r0, #1
     b78:	1a000001 	bne	0xb84
     b7c:	e3e00000 	mvn	r0, #0
     b80:	eaffffe6 	b	0xb20
     b84:	e2888001 	add	r8, r8, #1
     b88:	e59d0018 	ldr	r0, [sp, #24]
     b8c:	e1580000 	cmp	r8, r0
     b90:	3affffed 	bcc	0xb4c
     b94:	e59d0014 	ldr	r0, [sp, #20]
     b98:	e3500000 	cmp	r0, #0
     b9c:	0a000024 	beq	0xc34
     ba0:	eb00043b 	bl	0x1c94
     ba4:	e1a09000 	mov	r9, r0
     ba8:	e58d9064 	str	r9, [sp, #100]	; 0x64
     bac:	e59d0018 	ldr	r0, [sp, #24]
     bb0:	e6ff0070 	uxth	r0, r0
     bb4:	e1cd06b0 	strh	r0, [sp, #96]	; 0x60
     bb8:	e28d005c 	add	r0, sp, #92	; 0x5c
     bbc:	eb0004b9 	bl	0x1ea8
     bc0:	e3700001 	cmn	r0, #1
     bc4:	1a000001 	bne	0xbd0
     bc8:	e3e00000 	mvn	r0, #0
     bcc:	eaffffd3 	b	0xb20
     bd0:	e3a0a000 	mov	sl, #0
     bd4:	e51f0158 	ldr	r0, =0xa84
     bd8:	e5900000 	ldr	r0, [r0]
     bdc:	e59d1018 	ldr	r1, [sp, #24]
     be0:	e0205190 	mla	r0, r0, r1, r5
     be4:	e58d0004 	str	r0, [sp, #4]
     be8:	e59d0014 	ldr	r0, [sp, #20]
     bec:	e1a00480 	lsl	r0, r0, #9
     bf0:	e1a0b120 	lsr	fp, r0, #2
     bf4:	e58d9000 	str	r9, [sp]
     bf8:	ea00000a 	b	0xc28
     bfc:	e59d0000 	ldr	r0, [sp]
     c00:	e5900000 	ldr	r0, [r0]
     c04:	e59d1004 	ldr	r1, [sp, #4]
     c08:	e5810000 	str	r0, [r1]
     c0c:	e59d0000 	ldr	r0, [sp]
     c10:	e2800004 	add	r0, r0, #4
     c14:	e58d0000 	str	r0, [sp]
     c18:	e59d0004 	ldr	r0, [sp, #4]
     c1c:	e2800004 	add	r0, r0, #4
     c20:	e58d0004 	str	r0, [sp, #4]
     c24:	e28aa001 	add	sl, sl, #1
     c28:	e15a000b 	cmp	sl, fp
     c2c:	3afffff2 	bcc	0xbfc
     c30:	e320f000 	nop	{0}
     c34:	e3a00000 	mov	r0, #0
     c38:	eaffffb8 	b	0xb20
     c3c:	e92d4030 	push	{r4, r5, lr}
     c40:	e24dd054 	sub	sp, sp, #84	; 0x54
     c44:	e1a04000 	mov	r4, r0
     c48:	eb000411 	bl	0x1c94
     c4c:	e1a05000 	mov	r5, r0
     c50:	e3a00000 	mov	r0, #0
     c54:	e5cd0044 	strb	r0, [sp, #68]	; 0x44
     c58:	e6ff0074 	uxth	r0, r4
     c5c:	e1cd04b6 	strh	r0, [sp, #70]	; 0x46
     c60:	e51f01f4 	ldr	r0, =0xa74
     c64:	e5900000 	ldr	r0, [r0]
     c68:	e6ff0070 	uxth	r0, r0
     c6c:	e1cd04b8 	strh	r0, [sp, #72]	; 0x48
     c70:	e58d504c 	str	r5, [sp, #76]	; 0x4c
     c74:	e28d0004 	add	r0, sp, #4
     c78:	e58d0050 	str	r0, [sp, #80]	; 0x50
     c7c:	e28d0044 	add	r0, sp, #68	; 0x44
     c80:	eb000488 	bl	0x1ea8
     c84:	e3700001 	cmn	r0, #1
     c88:	1a000002 	bne	0xc98
     c8c:	e3e00000 	mvn	r0, #0
     c90:	e28dd054 	add	sp, sp, #84	; 0x54
     c94:	e8bd8030 	pop	{r4, r5, pc}
     c98:	e5dd0004 	ldrb	r0, [sp, #4]
     c9c:	e35000ff 	cmp	r0, #255	; 0xff
     ca0:	0a000001 	beq	0xcac
     ca4:	e3a00003 	mov	r0, #3
     ca8:	eafffff8 	b	0xc90
     cac:	e3a00000 	mov	r0, #0
     cb0:	eafffff6 	b	0xc90
     cb4:	e92d4010 	push	{r4, lr}
     cb8:	e59f11c4 	ldr	r1, =0xe84
     cbc:	e28f0f71 	adr	r0, 0xe88
     cc0:	eb0000bc 	bl	0xfb8
     cc4:	e8bd8010 	pop	{r4, pc}
     cc8:	e59f01cc 	ldr	r0, =CCM_IO_BASE
     ccc:	e5900144 	ldr	r0, [r0, #324]	; 0x144
     cd0:	e3800102 	orr	r0, r0, #0x80000000
     cd4:	e59f11c0 	ldr	r1, =CCM_IO_BASE
     cd8:	e5810144 	str	r0, [r1, #324]	; 0x144
     cdc:	e3a00001 	mov	r0, #1
     ce0:	e5810c80 	str	r0, [r1, #3200]	; 0xc80
     ce4:	e3020ee0 	movw	r0, #12000	; 0x2ee0
     ce8:	e5810c8c 	str	r0, [r1, #3212]	; 0xc8c
     cec:	e3a00000 	mov	r0, #0
     cf0:	e5810c84 	str	r0, [r1, #3204]	; 0xc84
     cf4:	e12fff1e 	bx	lr
     cf8:	e92d4030 	push	{r4, r5, lr}
     cfc:	e59f319c 	ldr	r3, =0xea0
     d00:	e59f119c 	ldr	r1, =0xea4
     d04:	e1a02223 	lsr	r2, r3, #4
     d08:	ea000004 	b	0xd20
     d0c:	e3a04000 	mov	r4, #0
     d10:	e4814004 	str	r4, [r1], #4
     d14:	e4814004 	str	r4, [r1], #4
     d18:	e4814004 	str	r4, [r1], #4
     d1c:	e4814004 	str	r4, [r1], #4
     d20:	e1b04002 	movs	r4, r2
     d24:	e2422001 	sub	r2, r2, #1
     d28:	1afffff7 	bne	0xd0c
     d2c:	e203200f 	and	r2, r3, #15
     d30:	e1a00001 	mov	r0, r1
     d34:	ea000001 	b	0xd40
     d38:	e3a04000 	mov	r4, #0
     d3c:	e4c04001 	strb	r4, [r0], #1
     d40:	e1b04002 	movs	r4, r2
     d44:	e2422001 	sub	r2, r2, #1
     d48:	1afffffa 	bne	0xd38
     d4c:	e8bd8030 	pop	{r4, r5, pc}
     d50:	e92d4070 	push	{r4, r5, r6, lr}
     d54:	ebffffe7 	bl	0xcf8
     d58:	ebffffda 	bl	0xcc8
     d5c:	e59f1144 	ldr	r1, =0xea8
     d60:	e5910088 	ldr	r0, [r1, #136]	; 0x88
     d64:	e59f2140 	ldr	r2, =0xeac
     d68:	e281108c 	add	r1, r1, #140	; 0x8c
     d6c:	eb000195 	bl	0x13c8
     d70:	e59f0130 	ldr	r0, =0xea8
     d74:	e590009c 	ldr	r0, [r0, #156]	; 0x9c
     d78:	e3500000 	cmp	r0, #0
     d7c:	0a000001 	beq	0xd88
     d80:	e59f0128 	ldr	r0, =0xeb0
     d84:	eb0001e4 	bl	0x151c
     d88:	e28f0f49 	adr	r0, 0xeb4
     d8c:	eb000089 	bl	0xfb8
     d90:	ebffffc7 	bl	0xcb4
     d94:	e3a02902 	mov	r2, #32768	; 0x8000
     d98:	e3a01a01 	mov	r1, #4096	; 0x1000
     d9c:	e3a00101 	mov	r0, #1073741824	; 0x40000000
     da0:	eb0003e0 	bl	0x1d28
     da4:	eb000400 	bl	0x1dac
     da8:	e59f10f8 	ldr	r1, =0xea8
     dac:	e5d1002f 	ldrb	r0, [r1, #47]	; 0x2f
     db0:	eb001140 	bl	0x52b8
     db4:	e1a04000 	mov	r4, r0
     db8:	e3540000 	cmp	r4, #0
     dbc:	0a000003 	beq	0xdd0
     dc0:	e1a01004 	mov	r1, r4
     dc4:	e28f0f41 	adr	r0, 0xed0
     dc8:	eb00007a 	bl	0xfb8
     dcc:	ea000004 	b	0xde4
     dd0:	e28f0f42 	adr	r0, 0xee0
     dd4:	eb000077 	bl	0xfb8
     dd8:	eb0003fb 	bl	0x1dcc
     ddc:	e59f0118 	ldr	r0, =0xefc
     de0:	eb0011c1 	bl	0x54ec
     de4:	ebfffd46 	bl	0x304
     de8:	e1a05000 	mov	r5, r0
     dec:	e28f0f43 	adr	r0, 0xf00
     df0:	eb000070 	bl	0xfb8
     df4:	eb0003f4 	bl	0x1dcc
     df8:	e3550000 	cmp	r5, #0
     dfc:	1a000006 	bne	0xe1c
     e00:	e59f0114 	ldr	r0, =0xf1c
     e04:	eb0003b3 	bl	0x1cd8
     e08:	e28f0e11 	adr	r0, 0xf20
     e0c:	eb000069 	bl	0xfb8
     e10:	e59f0134 	ldr	r0, =0xf4c
     e14:	eb0011b4 	bl	0x54ec
     e18:	ea000003 	b	0xe2c
     e1c:	e28f0f4b 	adr	r0, 0xf50
     e20:	eb000064 	bl	0xfb8
     e24:	e59f00d0 	ldr	r0, =0xefc
     e28:	eb0011af 	bl	0x54ec
     e2c:	e8bd8070 	pop	{r4, r5, r6, pc}

     e30:	e59f2140 	ldr	r2, =0xf78
     e34:	e59f3060 	ldr	r3, =CCM_IO_BASE
     e38:	e5832054 	str	r2, [r3, #84]	; 0x54
     e3c:	e59f0138 	ldr	r0, =0xf7c
     e40:	e1c321c0 	bic	r2, r3, r0, asr #3
     e44:	e5820000 	str	r0, [r2]
     e48:	e3a01000 	mov	r1, #0
     e4c:	ea000000 	b	0xe54
     e50:	e2811001 	add	r1, r1, #1
     e54:	e35100c8 	cmp	r1, #200	; 0xc8
     e58:	3afffffc 	bcc	0xe50
     e5c:	e59f2038 	ldr	r2, =CCM_IO_BASE
     e60:	e5920054 	ldr	r0, [r2, #84]	; 0x54
     e64:	e3c00803 	bic	r0, r0, #196608	; 0x30000
     e68:	e3800802 	orr	r0, r0, #131072	; 0x20000
     e6c:	e5820054 	str	r0, [r2, #84]	; 0x54
     e70:	e5922060 	ldr	r2, [r2, #96]	; 0x60
     e74:	e3822040 	orr	r2, r2, #64	; 0x40
     e78:	e59f301c 	ldr	r3, =CCM_IO_BASE
     e7c:	e5832060 	str	r2, [r3, #96]	; 0x60
     e80:	e12fff1e 	bx	lr

     e84:	00000029

     e88:	"boot0 version : %s\n",0

     e9c:	01c20000	; CCM_IO_BASE
     ea0:	000000dc
     ea4:	00005b38
     ea8:	00000000
     eac:	016e3600
     eb0:	000000a0

     eb4:	"HELLO! BOOT0 is starting!\n",0
     ed0:	"dram size =%d\n",0
     ee0:	"initializing SDRAM Fail.\n",0

     efc:	ffff0020

     f00:	"Ready to disable icache.\n",0

     f1c:	00000038

     f20:	"Succeed in loading Boot1.\nJump to Boot1.\n",0

     f4c:	42400000

     f50:	"Fail in loading Boot1.\nJump to Fel\n",0

     f78:	00010010
     f7c:	a1005000

     f80:	e92d4010 	push	{r4, lr}
     f84:	e1a04000 	mov	r4, r0
     f88:	ea000006 	b	0xfa8
     f8c:	e5d40000 	ldrb	r0, [r4]
     f90:	e350000a 	cmp	r0, #10
     f94:	1a000001 	bne	0xfa0
     f98:	e3a0000d 	mov	r0, #13
     f9c:	eb00014e 	bl	0x14dc
     fa0:	e4d40001 	ldrb	r0, [r4], #1
     fa4:	eb00014c 	bl	0x14dc
     fa8:	e5d40000 	ldrb	r0, [r4]
     fac:	e3500000 	cmp	r0, #0
     fb0:	1afffff5 	bne	0xf8c
     fb4:	e8bd8010 	pop	{r4, pc}
     fb8:	e92d000f 	push	{r0, r1, r2, r3}
     fbc:	e92d4030 	push	{r4, r5, lr}
     fc0:	e24dd014 	sub	sp, sp, #20
     fc4:	e28d0024 	add	r0, sp, #36	; 0x24
     fc8:	e58d0000 	str	r0, [sp]
     fcc:	ea000077 	b	0x11b0
     fd0:	e59d0020 	ldr	r0, [sp, #32]
     fd4:	e5d00000 	ldrb	r0, [r0]
     fd8:	e3500025 	cmp	r0, #37	; 0x25
     fdc:	1a000067 	bne	0x1180
     fe0:	e59d0020 	ldr	r0, [sp, #32]
     fe4:	e2800001 	add	r0, r0, #1
     fe8:	e58d0020 	str	r0, [sp, #32]
     fec:	e28d4004 	add	r4, sp, #4
     ff0:	e3a05058 	mov	r5, #88	; 0x58
     ff4:	e59d0020 	ldr	r0, [sp, #32]
     ff8:	e5d00000 	ldrb	r0, [r0]
     ffc:	e3500070 	cmp	r0, #112	; 0x70
    1000:	0a00001f 	beq	0x1084
    1004:	ca000006 	bgt	0x1024
    1008:	e3500058 	cmp	r0, #88	; 0x58
    100c:	0a00001d 	beq	0x1088
    1010:	e3500063 	cmp	r0, #99	; 0x63
    1014:	0a000037 	beq	0x10f8
    1018:	e3500064 	cmp	r0, #100	; 0x64
    101c:	1a00004c 	bne	0x1154
    1020:	ea000006 	b	0x1040
    1024:	e3500073 	cmp	r0, #115	; 0x73
    1028:	0a00003e 	beq	0x1128
    102c:	e3500075 	cmp	r0, #117	; 0x75
    1030:	0a000022 	beq	0x10c0
    1034:	e3500078 	cmp	r0, #120	; 0x78
    1038:	1a000045 	bne	0x1154
    103c:	ea00000d 	b	0x1078
    1040:	e320f000 	nop	{0}
    1044:	e59d1000 	ldr	r1, [sp]
    1048:	e5910000 	ldr	r0, [r1]
    104c:	e59d2000 	ldr	r2, [sp]
    1050:	e2822004 	add	r2, r2, #4
    1054:	e58d2000 	str	r2, [sp]
    1058:	e28d1004 	add	r1, sp, #4
    105c:	eb00005b 	bl	0x11d0
    1060:	e1a00004 	mov	r0, r4
    1064:	ebffffc5 	bl	0xf80
    1068:	e59d0020 	ldr	r0, [sp, #32]
    106c:	e2800001 	add	r0, r0, #1
    1070:	e58d0020 	str	r0, [sp, #32]
    1074:	ea000040 	b	0x117c
    1078:	e320f000 	nop	{0}
    107c:	e3a05078 	mov	r5, #120	; 0x78
    1080:	e320f000 	nop	{0}
    1084:	e320f000 	nop	{0}
    1088:	e59d1000 	ldr	r1, [sp]
    108c:	e5910000 	ldr	r0, [r1]
    1090:	e59d2000 	ldr	r2, [sp]
    1094:	e2822004 	add	r2, r2, #4
    1098:	e58d2000 	str	r2, [sp]
    109c:	e1a02005 	mov	r2, r5
    10a0:	e28d1004 	add	r1, sp, #4
    10a4:	eb00009c 	bl	0x131c
    10a8:	e1a00004 	mov	r0, r4
    10ac:	ebffffb3 	bl	0xf80
    10b0:	e59d0020 	ldr	r0, [sp, #32]
    10b4:	e2800001 	add	r0, r0, #1
    10b8:	e58d0020 	str	r0, [sp, #32]
    10bc:	ea00002e 	b	0x117c
    10c0:	e320f000 	nop	{0}
    10c4:	e59d1000 	ldr	r1, [sp]
    10c8:	e5910000 	ldr	r0, [r1]
    10cc:	e59d2000 	ldr	r2, [sp]
    10d0:	e2822004 	add	r2, r2, #4
    10d4:	e58d2000 	str	r2, [sp]
    10d8:	e28d1004 	add	r1, sp, #4
    10dc:	eb00006a 	bl	0x128c
    10e0:	e1a00004 	mov	r0, r4
    10e4:	ebffffa5 	bl	0xf80
    10e8:	e59d0020 	ldr	r0, [sp, #32]
    10ec:	e2800001 	add	r0, r0, #1
    10f0:	e58d0020 	str	r0, [sp, #32]
    10f4:	ea000020 	b	0x117c
    10f8:	e320f000 	nop	{0}
    10fc:	e59d1000 	ldr	r1, [sp]
    1100:	e5911000 	ldr	r1, [r1]
    1104:	e59d2000 	ldr	r2, [sp]
    1108:	e2822004 	add	r2, r2, #4
    110c:	e20100ff 	and	r0, r1, #255	; 0xff
    1110:	e58d2000 	str	r2, [sp]
    1114:	eb0000f0 	bl	0x14dc
    1118:	e59d0020 	ldr	r0, [sp, #32]
    111c:	e2800001 	add	r0, r0, #1
    1120:	e58d0020 	str	r0, [sp, #32]
    1124:	ea000014 	b	0x117c
    1128:	e320f000 	nop	{0}
    112c:	e59d1000 	ldr	r1, [sp]
    1130:	e5910000 	ldr	r0, [r1]
    1134:	e59d2000 	ldr	r2, [sp]
    1138:	e2822004 	add	r2, r2, #4
    113c:	e58d2000 	str	r2, [sp]
    1140:	ebffff8e 	bl	0xf80
    1144:	e59d0020 	ldr	r0, [sp, #32]
    1148:	e2800001 	add	r0, r0, #1
    114c:	e58d0020 	str	r0, [sp, #32]
    1150:	ea000009 	b	0x117c
    1154:	e320f000 	nop	{0}
    1158:	e3a00025 	mov	r0, #37	; 0x25
    115c:	eb0000de 	bl	0x14dc
    1160:	e59d1020 	ldr	r1, [sp, #32]
    1164:	e5d10000 	ldrb	r0, [r1]
    1168:	eb0000db 	bl	0x14dc
    116c:	e59d0020 	ldr	r0, [sp, #32]
    1170:	e2800001 	add	r0, r0, #1
    1174:	e58d0020 	str	r0, [sp, #32]
    1178:	e320f000 	nop	{0}
    117c:	ea00000b 	b	0x11b0
    1180:	e59d0020 	ldr	r0, [sp, #32]
    1184:	e5d00000 	ldrb	r0, [r0]
    1188:	e350000a 	cmp	r0, #10
    118c:	1a000001 	bne	0x1198
    1190:	e3a0000d 	mov	r0, #13
    1194:	eb0000d0 	bl	0x14dc
    1198:	e59d1020 	ldr	r1, [sp, #32]
    119c:	e5d10000 	ldrb	r0, [r1]
    11a0:	e59d2020 	ldr	r2, [sp, #32]
    11a4:	e2822001 	add	r2, r2, #1
    11a8:	e58d2020 	str	r2, [sp, #32]
    11ac:	eb0000ca 	bl	0x14dc
    11b0:	e59d0020 	ldr	r0, [sp, #32]
    11b4:	e5d00000 	ldrb	r0, [r0]
    11b8:	e3500000 	cmp	r0, #0
    11bc:	1affff83 	bne	0xfd0
    11c0:	e28dd014 	add	sp, sp, #20
    11c4:	e8bd0030 	pop	{r4, r5}
    11c8:	e49df014 	ldr	pc, [sp], #20
    11cc:	e12fff1e 	bx	lr
    11d0:	e92d43fe 	push	{r1, r2, r3, r4, r5, r6, r7, r8, r9, lr}
    11d4:	e1a04000 	mov	r4, r0
    11d8:	e1a05001 	mov	r5, r1
    11dc:	e3a06000 	mov	r6, #0
    11e0:	e3540000 	cmp	r4, #0
    11e4:	1a000004 	bne	0x11fc
    11e8:	e3a00030 	mov	r0, #48	; 0x30
    11ec:	e5c50000 	strb	r0, [r5]
    11f0:	e3a00000 	mov	r0, #0
    11f4:	e5c50001 	strb	r0, [r5, #1]
    11f8:	e8bd83fe 	pop	{r1, r2, r3, r4, r5, r6, r7, r8, r9, pc}
    11fc:	e3540000 	cmp	r4, #0
    1200:	aa000001 	bge	0x120c
    1204:	e3a06001 	mov	r6, #1
    1208:	e2644000 	rsb	r4, r4, #0
    120c:	e3a08000 	mov	r8, #0
    1210:	ea000009 	b	0x123c
    1214:	e3a0100a 	mov	r1, #10
    1218:	e1a00004 	mov	r0, r4
    121c:	eb000e1d 	bl	0x4a98
    1220:	e2810030 	add	r0, r1, #48	; 0x30
    1224:	e7cd0008 	strb	r0, [sp, r8]
    1228:	e3a0100a 	mov	r1, #10
    122c:	e1a00004 	mov	r0, r4
    1230:	eb000e18 	bl	0x4a98
    1234:	e1a04000 	mov	r4, r0
    1238:	e2888001 	add	r8, r8, #1
    123c:	e3540000 	cmp	r4, #0
    1240:	cafffff3 	bgt	0x1214
    1244:	e3a07000 	mov	r7, #0
    1248:	e3560001 	cmp	r6, #1
    124c:	1a000003 	bne	0x1260
    1250:	e3a0102d 	mov	r1, #45	; 0x2d
    1254:	e1a00007 	mov	r0, r7
    1258:	e2877001 	add	r7, r7, #1
    125c:	e7c51000 	strb	r1, [r5, r0]
    1260:	e2488001 	sub	r8, r8, #1
    1264:	ea000003 	b	0x1278
    1268:	e7dd0008 	ldrb	r0, [sp, r8]
    126c:	e7c50007 	strb	r0, [r5, r7]
    1270:	e2488001 	sub	r8, r8, #1
    1274:	e2877001 	add	r7, r7, #1
    1278:	e3580000 	cmp	r8, #0
    127c:	aafffff9 	bge	0x1268
    1280:	e3a00000 	mov	r0, #0
    1284:	e7c50007 	strb	r0, [r5, r7]
    1288:	eaffffda 	b	0x11f8
    128c:	e92d40fe 	push	{r1, r2, r3, r4, r5, r6, r7, lr}
    1290:	e1a04000 	mov	r4, r0
    1294:	e1a05001 	mov	r5, r1
    1298:	e3540000 	cmp	r4, #0
    129c:	1a000004 	bne	0x12b4
    12a0:	e3a00030 	mov	r0, #48	; 0x30
    12a4:	e5c50000 	strb	r0, [r5]
    12a8:	e3a00000 	mov	r0, #0
    12ac:	e5c50001 	strb	r0, [r5, #1]
    12b0:	e8bd80fe 	pop	{r1, r2, r3, r4, r5, r6, r7, pc}
    12b4:	e3a06000 	mov	r6, #0
    12b8:	ea000009 	b	0x12e4
    12bc:	e3a0100a 	mov	r1, #10
    12c0:	e1a00004 	mov	r0, r4
    12c4:	eb000e52 	bl	0x4c14
    12c8:	e2810030 	add	r0, r1, #48	; 0x30
    12cc:	e7cd0006 	strb	r0, [sp, r6]
    12d0:	e3a0100a 	mov	r1, #10
    12d4:	e1a00004 	mov	r0, r4
    12d8:	eb000e4d 	bl	0x4c14
    12dc:	e1a04000 	mov	r4, r0
    12e0:	e2866001 	add	r6, r6, #1
    12e4:	e3540000 	cmp	r4, #0
    12e8:	1afffff3 	bne	0x12bc
    12ec:	e2466001 	sub	r6, r6, #1
    12f0:	e3a07000 	mov	r7, #0
    12f4:	ea000003 	b	0x1308
    12f8:	e7dd0006 	ldrb	r0, [sp, r6]
    12fc:	e7c50007 	strb	r0, [r5, r7]
    1300:	e2466001 	sub	r6, r6, #1
    1304:	e2877001 	add	r7, r7, #1
    1308:	e3560000 	cmp	r6, #0
    130c:	aafffff9 	bge	0x12f8
    1310:	e3a00000 	mov	r0, #0
    1314:	e7c50007 	strb	r0, [r5, r7]
    1318:	eaffffe4 	b	0x12b0
    131c:	e92d407c 	push	{r2, r3, r4, r5, r6, lr}
    1320:	e3a03000 	mov	r3, #0
    1324:	ea00000c 	b	0x135c
    1328:	e3520058 	cmp	r2, #88	; 0x58
    132c:	1a000004 	bne	0x1344
    1330:	e200500f 	and	r5, r0, #15
    1334:	e28f6064 	adr	r6, 0x13a0
    1338:	e7d65005 	ldrb	r5, [r6, r5]
    133c:	e7cd5003 	strb	r5, [sp, r3]
    1340:	ea000003 	b	0x1354
    1344:	e200500f 	and	r5, r0, #15
    1348:	e28f6064 	adr	r6, 0x13b4
    134c:	e7d65005 	ldrb	r5, [r6, r5]
    1350:	e7cd5003 	strb	r5, [sp, r3]
    1354:	e1a00240 	asr	r0, r0, #4
    1358:	e2833001 	add	r3, r3, #1
    135c:	e3530008 	cmp	r3, #8
    1360:	bafffff0 	blt	0x1328
    1364:	e3a05030 	mov	r5, #48	; 0x30
    1368:	e5c15000 	strb	r5, [r1]
    136c:	e5c12001 	strb	r2, [r1, #1]
    1370:	e3a03007 	mov	r3, #7
    1374:	e3a04002 	mov	r4, #2
    1378:	ea000003 	b	0x138c
    137c:	e7dd5003 	ldrb	r5, [sp, r3]
    1380:	e7c15004 	strb	r5, [r1, r4]
    1384:	e2433001 	sub	r3, r3, #1
    1388:	e2844001 	add	r4, r4, #1
    138c:	e3530000 	cmp	r3, #0
    1390:	aafffff9 	bge	0x137c
    1394:	e3a05000 	mov	r5, #0
    1398:	e7c15004 	strb	r5, [r1, r4]
    139c:	e8bd807c 	pop	{r2, r3, r4, r5, r6, pc}

    13a0:	"0123456789ABCDEF",0
    13b4:	"0123456789abcdef",0

    13c8:	e92d47f0 	push	{r4, r5, r6, r7, r8, r9, sl, lr}
    13cc:	e1a04000 	mov	r4, r0
    13d0:	e1a05001 	mov	r5, r1
    13d4:	e1a06002 	mov	r6, r2
    13d8:	e3a07000 	mov	r7, #0
    13dc:	e59f0128 	ldr	r0, =0x150c
    13e0:	e5804000 	str	r4, [r0]
    13e4:	e5900000 	ldr	r0, [r0]
    13e8:	e3500007 	cmp	r0, #7
    13ec:	9a000000 	bls	0x13f4
    13f0:	e8bd87f0 	pop	{r4, r5, r6, r7, r8, r9, sl, pc}
    13f4:	e59f0114 	ldr	r0, =0x1510
    13f8:	e590006c 	ldr	r0, [r0, #108]	; 0x6c
    13fc:	e59f1108 	ldr	r1, =0x150c
    1400:	e5911000 	ldr	r1, [r1]
    1404:	e2811010 	add	r1, r1, #16
    1408:	e3a02001 	mov	r2, #1
    140c:	e1c00112 	bic	r0, r0, r2, lsl r1
    1410:	e59f10f8 	ldr	r1, =0x1510
    1414:	e581006c 	str	r0, [r1, #108]	; 0x6c
    1418:	e3a09000 	mov	r9, #0
    141c:	ea000000 	b	0x1424
    1420:	e2899001 	add	r9, r9, #1
    1424:	e3590064 	cmp	r9, #100	; 0x64
    1428:	3afffffc 	bcc	0x1420
    142c:	e59f00dc 	ldr	r0, =0x1510
    1430:	e590006c 	ldr	r0, [r0, #108]	; 0x6c
    1434:	e59f10d0 	ldr	r1, =0x150c
    1438:	e5911000 	ldr	r1, [r1]
    143c:	e2811010 	add	r1, r1, #16
    1440:	e3a02001 	mov	r2, #1
    1444:	e1800112 	orr	r0, r0, r2, lsl r1
    1448:	e59f10c0 	ldr	r1, =0x1510
    144c:	e581006c 	str	r0, [r1, #108]	; 0x6c
    1450:	e3a01002 	mov	r1, #2
    1454:	e1a00005 	mov	r0, r5
    1458:	eb000112 	bl	0x18a8
    145c:	e59f10b0 	ldr	r1, =0x1514
    1460:	e2860ae1 	add	r0, r6, #921600	; 0xe1000
    1464:	eb000dea 	bl	0x4c14
    1468:	e1a08000 	mov	r8, r0
    146c:	e3a00080 	mov	r0, #128	; 0x80
    1470:	e59f1094 	ldr	r1, =0x150c
    1474:	e5911000 	ldr	r1, [r1]
    1478:	e59f2098 	ldr	r2, =0x1518
    147c:	e0821501 	add	r1, r2, r1, lsl #10
    1480:	e581000c 	str	r0, [r1, #12]
    1484:	e1a00428 	lsr	r0, r8, #8
    1488:	e59f107c 	ldr	r1, =0x150c
    148c:	e5911000 	ldr	r1, [r1]
    1490:	e0821501 	add	r1, r2, r1, lsl #10
    1494:	e5810004 	str	r0, [r1, #4]
    1498:	e20800ff 	and	r0, r8, #255	; 0xff
    149c:	e59f1068 	ldr	r1, =0x150c
    14a0:	e5911000 	ldr	r1, [r1]
    14a4:	e7820501 	str	r0, [r2, r1, lsl #10]
    14a8:	e3a07003 	mov	r7, #3
    14ac:	e59f0058 	ldr	r0, =0x150c
    14b0:	e5900000 	ldr	r0, [r0]
    14b4:	e1a01002 	mov	r1, r2
    14b8:	e0810500 	add	r0, r1, r0, lsl #10
    14bc:	e580700c 	str	r7, [r0, #12]
    14c0:	e3a00006 	mov	r0, #6
    14c4:	e59f1040 	ldr	r1, =0x150c
    14c8:	e5911000 	ldr	r1, [r1]
    14cc:	e0821501 	add	r1, r2, r1, lsl #10
    14d0:	e5810008 	str	r0, [r1, #8]
    14d4:	eaffffc5 	b	0x13f0
    14d8:	e12fff1e 	bx	lr
    14dc:	e320f000 	nop	{0}
    14e0:	e59f1024 	ldr	r1, =0x150c
    14e4:	e5911000 	ldr	r1, [r1]
    14e8:	e59f2028 	ldr	r2, =0x1518
    14ec:	e0821501 	add	r1, r2, r1, lsl #10
    14f0:	e5911014 	ldr	r1, [r1, #20]
    14f4:	e3110040 	tst	r1, #64	; 0x40
    14f8:	0afffff8 	beq	0x14e0
    14fc:	e59f1008 	ldr	r1, =0x150c
    1500:	e5911000 	ldr	r1, [r1]
    1504:	e7820501 	str	r0, [r2, r1, lsl #10]
    1508:	e12fff1e 	bx	lr

    150c:	00005b00
    1510:	01c20000	; CCM_IO_BASE
    1514:	001c2000
    1518:	01c28000

    151c:	e92d4010 	push	{r4, lr}
    1520:	e1a04000 	mov	r4, r0
    1524:	e3a02001 	mov	r2, #1
    1528:	e3a01006 	mov	r1, #6
    152c:	e1a00004 	mov	r0, r4
    1530:	eb0000dc 	bl	0x18a8
    1534:	e8bd8010 	pop	{r4, pc}
    1538:	e92d40f0 	push	{r4, r5, r6, r7, lr}
    153c:	e1a02000 	mov	r2, r0
    1540:	e1a03002 	mov	r3, r2
    1544:	e1a02003 	mov	r2, r3
    1548:	e2836004 	add	r6, r3, #4
    154c:	e3a04000 	mov	r4, #0
    1550:	e3a05008 	mov	r5, #8
    1554:	ea000006 	b	0x1574
    1558:	e4d60001 	ldrb	r0, [r6], #1
    155c:	e4d17001 	ldrb	r7, [r1], #1
    1560:	e1500007 	cmp	r0, r7
    1564:	0a000001 	beq	0x1570
    1568:	e3a00001 	mov	r0, #1
    156c:	e8bd80f0 	pop	{r4, r5, r6, r7, pc}
    1570:	e2844001 	add	r4, r4, #1
    1574:	e1540005 	cmp	r4, r5
    1578:	3afffff6 	bcc	0x1558
    157c:	e3a00000 	mov	r0, #0
    1580:	eafffff9 	b	0x156c
    1584:	e92d40f0 	push	{r4, r5, r6, r7, lr}
    1588:	e1a02000 	mov	r2, r0
    158c:	e1a06002 	mov	r6, r2
    1590:	e1a02006 	mov	r2, r6
    1594:	e596500c 	ldr	r5, [r6, #12]
    1598:	e59f00c0 	ldr	r0, =0x1660
    159c:	e1a02006 	mov	r2, r6
    15a0:	e586000c 	str	r0, [r6, #12]
    15a4:	e1a04121 	lsr	r4, r1, #2
    15a8:	e3a07000 	mov	r7, #0
    15ac:	e1a03002 	mov	r3, r2
    15b0:	e320f000 	nop	{0}
    15b4:	e4930004 	ldr	r0, [r3], #4
    15b8:	e0877000 	add	r7, r7, r0
    15bc:	e4930004 	ldr	r0, [r3], #4
    15c0:	e0877000 	add	r7, r7, r0
    15c4:	e4930004 	ldr	r0, [r3], #4
    15c8:	e0877000 	add	r7, r7, r0
    15cc:	e4930004 	ldr	r0, [r3], #4
    15d0:	e0877000 	add	r7, r7, r0
    15d4:	e2440004 	sub	r0, r4, #4
    15d8:	e1a04000 	mov	r4, r0
    15dc:	e3500003 	cmp	r0, #3
    15e0:	8afffff3 	bhi	0x15b4
    15e4:	ea000001 	b	0x15f0
    15e8:	e4930004 	ldr	r0, [r3], #4
    15ec:	e0877000 	add	r7, r7, r0
    15f0:	e1b00004 	movs	r0, r4
    15f4:	e2444001 	sub	r4, r4, #1
    15f8:	1afffffa 	bne	0x15e8
    15fc:	e586500c 	str	r5, [r6, #12]
    1600:	e1570005 	cmp	r7, r5
    1604:	1a000001 	bne	0x1610
    1608:	e3a00000 	mov	r0, #0
    160c:	e8bd80f0 	pop	{r4, r5, r6, r7, pc}
    1610:	e3a00001 	mov	r0, #1
    1614:	eafffffc 	b	0x160c
    1618:	e92d4070 	push	{r4, r5, r6, lr}
    161c:	e1a04000 	mov	r4, r0
    1620:	e1a05001 	mov	r5, r1
    1624:	e1a06002 	mov	r6, r2
    1628:	e1a01006 	mov	r1, r6
    162c:	e1a00004 	mov	r0, r4
    1630:	ebffffc0 	bl	0x1538
    1634:	e3500000 	cmp	r0, #0
    1638:	1a000006 	bne	0x1658
    163c:	e1a01005 	mov	r1, r5
    1640:	e1a00004 	mov	r0, r4
    1644:	ebffffce 	bl	0x1584
    1648:	e3500000 	cmp	r0, #0
    164c:	1a000001 	bne	0x1658
    1650:	e3a00000 	mov	r0, #0
    1654:	e8bd8070 	pop	{r4, r5, r6, pc}
    1658:	e3a00001 	mov	r0, #1
    165c:	eafffffc 	b	0x1654

    1660:	5f0a6c39

    1664:	e1a03000 	mov	r3, r0
    1668:	e3510000 	cmp	r1, #0
    166c:	1a000002 	bne	0x167c
    1670:	e3a00000 	mov	r0, #0
    1674:	e5820000 	str	r0, [r2]
    1678:	e12fff1e 	bx	lr
    167c:	e3510001 	cmp	r1, #1
    1680:	1a000002 	bne	0x1690
    1684:	e5823000 	str	r3, [r2]
    1688:	e3a00000 	mov	r0, #0
    168c:	eafffff9 	b	0x1678
    1690:	e3a00000 	mov	r0, #0
    1694:	e5820000 	str	r0, [r2]
    1698:	ea000003 	b	0x16ac
    169c:	e0433001 	sub	r3, r3, r1
    16a0:	e5920000 	ldr	r0, [r2]
    16a4:	e2800001 	add	r0, r0, #1
    16a8:	e5820000 	str	r0, [r2]
    16ac:	e1530001 	cmp	r3, r1
    16b0:	2afffff9 	bcs	0x169c
    16b4:	e1a00003 	mov	r0, r3
    16b8:	eaffffee 	b	0x1678
    16bc:	e1a02000 	mov	r2, r0
    16c0:	e3520030 	cmp	r2, #48	; 0x30
    16c4:	ba000005 	blt	0x16e0
    16c8:	e3520039 	cmp	r2, #57	; 0x39
    16cc:	ca000003 	bgt	0x16e0
    16d0:	e2420030 	sub	r0, r2, #48	; 0x30
    16d4:	e5810000 	str	r0, [r1]
    16d8:	e3a00001 	mov	r0, #1
    16dc:	e12fff1e 	bx	lr
    16e0:	e3520061 	cmp	r2, #97	; 0x61
    16e4:	ba000005 	blt	0x1700
    16e8:	e3520066 	cmp	r2, #102	; 0x66
    16ec:	ca000003 	bgt	0x1700
    16f0:	e2420057 	sub	r0, r2, #87	; 0x57
    16f4:	e5810000 	str	r0, [r1]
    16f8:	e3a00001 	mov	r0, #1
    16fc:	eafffff6 	b	0x16dc
    1700:	e3520041 	cmp	r2, #65	; 0x41
    1704:	ba000005 	blt	0x1720
    1708:	e3520046 	cmp	r2, #70	; 0x46
    170c:	ca000003 	bgt	0x1720
    1710:	e2420037 	sub	r0, r2, #55	; 0x37
    1714:	e5810000 	str	r0, [r1]
    1718:	e3a00001 	mov	r0, #1
    171c:	eaffffee 	b	0x16dc
    1720:	e3a00000 	mov	r0, #0
    1724:	eaffffec 	b	0x16dc
    1728:	e92d40f8 	push	{r3, r4, r5, r6, r7, lr}
    172c:	e1a04000 	mov	r4, r0
    1730:	e1a05001 	mov	r5, r1
    1734:	e5d40000 	ldrb	r0, [r4]
    1738:	e3500030 	cmp	r0, #48	; 0x30
    173c:	1a00001d 	bne	0x17b8
    1740:	e5d40001 	ldrb	r0, [r4, #1]
    1744:	e3500078 	cmp	r0, #120	; 0x78
    1748:	0a000002 	beq	0x1758
    174c:	e5d40001 	ldrb	r0, [r4, #1]
    1750:	e3500058 	cmp	r0, #88	; 0x58
    1754:	1a000017 	bne	0x17b8
    1758:	e3a07000 	mov	r7, #0
    175c:	e3a06002 	mov	r6, #2
    1760:	ea000002 	b	0x1770
    1764:	e59d0000 	ldr	r0, [sp]
    1768:	e0807207 	add	r7, r0, r7, lsl #4
    176c:	e2866001 	add	r6, r6, #1
    1770:	e7d40006 	ldrb	r0, [r4, r6]
    1774:	e1a0100d 	mov	r1, sp
    1778:	ebffffcf 	bl	0x16bc
    177c:	e3500000 	cmp	r0, #0
    1780:	1afffff7 	bne	0x1764
    1784:	e3560002 	cmp	r6, #2
    1788:	1a000004 	bne	0x17a0
    178c:	e3550000 	cmp	r5, #0
    1790:	0a000000 	beq	0x1798
    1794:	e5854000 	str	r4, [r5]
    1798:	e3a00000 	mov	r0, #0
    179c:	e8bd80f8 	pop	{r3, r4, r5, r6, r7, pc}
    17a0:	e3550000 	cmp	r5, #0
    17a4:	0a000001 	beq	0x17b0
    17a8:	e0840006 	add	r0, r4, r6
    17ac:	e5850000 	str	r0, [r5]
    17b0:	e1a00007 	mov	r0, r7
    17b4:	eafffff8 	b	0x179c
    17b8:	e320f000 	nop	{0}
    17bc:	e5d40000 	ldrb	r0, [r4]
    17c0:	e3500030 	cmp	r0, #48	; 0x30
    17c4:	1a000011 	bne	0x1810
    17c8:	e3a00000 	mov	r0, #0
    17cc:	e3a06000 	mov	r6, #0
    17d0:	ea000003 	b	0x17e4
    17d4:	e7d41006 	ldrb	r1, [r4, r6]
    17d8:	e0811180 	add	r1, r1, r0, lsl #3
    17dc:	e2410030 	sub	r0, r1, #48	; 0x30
    17e0:	e2866001 	add	r6, r6, #1
    17e4:	e7d41006 	ldrb	r1, [r4, r6]
    17e8:	e3510030 	cmp	r1, #48	; 0x30
    17ec:	ba000002 	blt	0x17fc
    17f0:	e7d41006 	ldrb	r1, [r4, r6]
    17f4:	e3510037 	cmp	r1, #55	; 0x37
    17f8:	dafffff5 	ble	0x17d4
    17fc:	e3550000 	cmp	r5, #0
    1800:	0a000001 	beq	0x180c
    1804:	e0841006 	add	r1, r4, r6
    1808:	e5851000 	str	r1, [r5]
    180c:	eaffffe2 	b	0x179c
    1810:	e320f000 	nop	{0}
    1814:	e3a01000 	mov	r1, #0
    1818:	e3a02001 	mov	r2, #1
    181c:	e5d40000 	ldrb	r0, [r4]
    1820:	e350002d 	cmp	r0, #45	; 0x2d
    1824:	1a000001 	bne	0x1830
    1828:	e2811001 	add	r1, r1, #1
    182c:	e3a02000 	mov	r2, #0
    1830:	e3a03000 	mov	r3, #0
    1834:	e1a06001 	mov	r6, r1
    1838:	ea000004 	b	0x1850
    183c:	e7d40006 	ldrb	r0, [r4, r6]
    1840:	e0837103 	add	r7, r3, r3, lsl #2
    1844:	e0800087 	add	r0, r0, r7, lsl #1
    1848:	e2403030 	sub	r3, r0, #48	; 0x30
    184c:	e2866001 	add	r6, r6, #1
    1850:	e7d40006 	ldrb	r0, [r4, r6]
    1854:	e3500030 	cmp	r0, #48	; 0x30
    1858:	ba000002 	blt	0x1868
    185c:	e7d40006 	ldrb	r0, [r4, r6]
    1860:	e3500039 	cmp	r0, #57	; 0x39
    1864:	dafffff4 	ble	0x183c
    1868:	e1560001 	cmp	r6, r1
    186c:	1a000004 	bne	0x1884
    1870:	e3550000 	cmp	r5, #0
    1874:	0a000000 	beq	0x187c
    1878:	e5854000 	str	r4, [r5]
    187c:	e3a00000 	mov	r0, #0
    1880:	eaffffc5 	b	0x179c
    1884:	e3520000 	cmp	r2, #0
    1888:	1a000000 	bne	0x1890
    188c:	e2633000 	rsb	r3, r3, #0
    1890:	e3550000 	cmp	r5, #0
    1894:	0a000001 	beq	0x18a0
    1898:	e0840006 	add	r0, r4, r6
    189c:	e5850000 	str	r0, [r5]
    18a0:	e1a00003 	mov	r0, r3
    18a4:	eaffffbc 	b	0x179c
    18a8:	e92d4ff7 	push	{r0, r1, r2, r4, r5, r6, r7, r8, r9, sl, fp, lr}
    18ac:	e24dd028 	sub	sp, sp, #40	; 0x28
    18b0:	e3a00000 	mov	r0, #0
    18b4:	e58d0020 	str	r0, [sp, #32]
    18b8:	e59d0028 	ldr	r0, [sp, #40]	; 0x28
    18bc:	e3c00102 	bic	r0, r0, #-2147483648	; 0x80000000
    18c0:	e3c000ff 	bic	r0, r0, #255	; 0xff
    18c4:	e59fb3b4 	ldr	fp, =0x1c80
    18c8:	e150000b 	cmp	r0, fp
    18cc:	1a000006 	bne	0x18ec
    18d0:	e59db028 	ldr	fp, [sp, #40]	; 0x28
    18d4:	e20b0003 	and	r0, fp, #3
    18d8:	e1a00180 	lsl	r0, r0, #3
    18dc:	e59fb3a0 	ldr	fp, =0x1c84
    18e0:	e08bb180 	add	fp, fp, r0, lsl #3
    18e4:	e58db024 	str	fp, [sp, #36]	; 0x24
    18e8:	ea000001 	b	0x18f4
    18ec:	e59d0028 	ldr	r0, [sp, #40]	; 0x28
    18f0:	e58d0024 	str	r0, [sp, #36]	; 0x24
    18f4:	e3a02000 	mov	r2, #0
    18f8:	ea00004e 	b	0x1a38
    18fc:	e59d0024 	ldr	r0, [sp, #36]	; 0x24
    1900:	e0801182 	add	r1, r0, r2, lsl #3
    1904:	e5d10000 	ldrb	r0, [r1]
    1908:	e58d0010 	str	r0, [sp, #16]
    190c:	e5d1e001 	ldrb	lr, [r1, #1]
    1910:	e59d0010 	ldr	r0, [sp, #16]
    1914:	e3500000 	cmp	r0, #0
    1918:	1a000000 	bne	0x1920
    191c:	ea000043 	b	0x1a30
    1920:	e1a081ae 	lsr	r8, lr, #3
    1924:	e1a0922e 	lsr	r9, lr, #4
    1928:	e59d0010 	ldr	r0, [sp, #16]
    192c:	e2400001 	sub	r0, r0, #1
    1930:	e0800180 	add	r0, r0, r0, lsl #3
    1934:	e59fb34c 	ldr	fp, =0x1c88
    1938:	e08b7100 	add	r7, fp, r0, lsl #2
    193c:	e087c108 	add	ip, r7, r8, lsl #2
    1940:	e287001c 	add	r0, r7, #28
    1944:	e0800109 	add	r0, r0, r9, lsl #2
    1948:	e58d001c 	str	r0, [sp, #28]
    194c:	e2870014 	add	r0, r7, #20
    1950:	e0800109 	add	r0, r0, r9, lsl #2
    1954:	e58d0018 	str	r0, [sp, #24]
    1958:	e2870010 	add	r0, r7, #16
    195c:	e58d0014 	str	r0, [sp, #20]
    1960:	e59c3000 	ldr	r3, [ip]
    1964:	e59d001c 	ldr	r0, [sp, #28]
    1968:	e5904000 	ldr	r4, [r0]
    196c:	e59d0018 	ldr	r0, [sp, #24]
    1970:	e5905000 	ldr	r5, [r0]
    1974:	e59d0014 	ldr	r0, [sp, #20]
    1978:	e5906000 	ldr	r6, [r0]
    197c:	e59d0010 	ldr	r0, [sp, #16]
    1980:	e58d000c 	str	r0, [sp, #12]
    1984:	e58d8008 	str	r8, [sp, #8]
    1988:	e58d9004 	str	r9, [sp, #4]
    198c:	e04e0188 	sub	r0, lr, r8, lsl #3
    1990:	e1a0a100 	lsl	sl, r0, #2
    1994:	e3a00007 	mov	r0, #7
    1998:	e1c33a10 	bic	r3, r3, r0, lsl sl
    199c:	e59d0030 	ldr	r0, [sp, #48]	; 0x30
    19a0:	e3500000 	cmp	r0, #0
    19a4:	0a000002 	beq	0x19b4
    19a8:	e5d10002 	ldrb	r0, [r1, #2]
    19ac:	e2000007 	and	r0, r0, #7
    19b0:	e1833a10 	orr	r3, r3, r0, lsl sl
    19b4:	e04e0209 	sub	r0, lr, r9, lsl #4
    19b8:	e1a0a080 	lsl	sl, r0, #1
    19bc:	e1d100d3 	ldrsb	r0, [r1, #3]
    19c0:	e3500000 	cmp	r0, #0
    19c4:	ba000004 	blt	0x19dc
    19c8:	e3a00003 	mov	r0, #3
    19cc:	e1c44a10 	bic	r4, r4, r0, lsl sl
    19d0:	e5d10003 	ldrb	r0, [r1, #3]
    19d4:	e2000003 	and	r0, r0, #3
    19d8:	e1844a10 	orr	r4, r4, r0, lsl sl
    19dc:	e1d100d4 	ldrsb	r0, [r1, #4]
    19e0:	e3500000 	cmp	r0, #0
    19e4:	ba000004 	blt	0x19fc
    19e8:	e3a00003 	mov	r0, #3
    19ec:	e1c55a10 	bic	r5, r5, r0, lsl sl
    19f0:	e5d10004 	ldrb	r0, [r1, #4]
    19f4:	e2000003 	and	r0, r0, #3
    19f8:	e1855a10 	orr	r5, r5, r0, lsl sl
    19fc:	e5d10002 	ldrb	r0, [r1, #2]
    1a00:	e3500001 	cmp	r0, #1
    1a04:	1a000008 	bne	0x1a2c
    1a08:	e1d100d5 	ldrsb	r0, [r1, #5]
    1a0c:	e3500000 	cmp	r0, #0
    1a10:	ba000005 	blt	0x1a2c
    1a14:	e5d10005 	ldrb	r0, [r1, #5]
    1a18:	e200a001 	and	sl, r0, #1
    1a1c:	e3a00001 	mov	r0, #1
    1a20:	e1c66e10 	bic	r6, r6, r0, lsl lr
    1a24:	e1866e1a 	orr	r6, r6, sl, lsl lr
    1a28:	e58d0020 	str	r0, [sp, #32]
    1a2c:	ea000004 	b	0x1a44
    1a30:	e320f000 	nop	{0}
    1a34:	e2822001 	add	r2, r2, #1
    1a38:	e59d002c 	ldr	r0, [sp, #44]	; 0x2c
    1a3c:	e1520000 	cmp	r2, r0
    1a40:	3affffad 	bcc	0x18fc
    1a44:	e320f000 	nop	{0}
    1a48:	e59d002c 	ldr	r0, [sp, #44]	; 0x2c
    1a4c:	e1520000 	cmp	r2, r0
    1a50:	3a000002 	bcc	0x1a60
    1a54:	e3e00000 	mvn	r0, #0
    1a58:	e28dd034 	add	sp, sp, #52	; 0x34
    1a5c:	e8bd8ff0 	pop	{r4, r5, r6, r7, r8, r9, sl, fp, pc}
    1a60:	e2820001 	add	r0, r2, #1
    1a64:	e58d0000 	str	r0, [sp]
    1a68:	ea000071 	b	0x1c34
    1a6c:	e59d0024 	ldr	r0, [sp, #36]	; 0x24
    1a70:	e59db000 	ldr	fp, [sp]
    1a74:	e080118b 	add	r1, r0, fp, lsl #3
    1a78:	e5d10000 	ldrb	r0, [r1]
    1a7c:	e58d0010 	str	r0, [sp, #16]
    1a80:	e5d1e001 	ldrb	lr, [r1, #1]
    1a84:	e59d0010 	ldr	r0, [sp, #16]
    1a88:	e3500000 	cmp	r0, #0
    1a8c:	1a000000 	bne	0x1a94
    1a90:	ea00006b 	b	0x1c44
    1a94:	e1a081ae 	lsr	r8, lr, #3
    1a98:	e1a0922e 	lsr	r9, lr, #4
    1a9c:	e59d0004 	ldr	r0, [sp, #4]
    1aa0:	e1590000 	cmp	r9, r0
    1aa4:	1a000003 	bne	0x1ab8
    1aa8:	e59d0010 	ldr	r0, [sp, #16]
    1aac:	e59db00c 	ldr	fp, [sp, #12]
    1ab0:	e150000b 	cmp	r0, fp
    1ab4:	0a000021 	beq	0x1b40
    1ab8:	e58c3000 	str	r3, [ip]
    1abc:	e59d001c 	ldr	r0, [sp, #28]
    1ac0:	e5804000 	str	r4, [r0]
    1ac4:	e59d0018 	ldr	r0, [sp, #24]
    1ac8:	e5805000 	str	r5, [r0]
    1acc:	e59d0020 	ldr	r0, [sp, #32]
    1ad0:	e3500000 	cmp	r0, #0
    1ad4:	0a000003 	beq	0x1ae8
    1ad8:	e3a00000 	mov	r0, #0
    1adc:	e58d0020 	str	r0, [sp, #32]
    1ae0:	e59d0014 	ldr	r0, [sp, #20]
    1ae4:	e5806000 	str	r6, [r0]
    1ae8:	e59d0010 	ldr	r0, [sp, #16]
    1aec:	e2400001 	sub	r0, r0, #1
    1af0:	e0800180 	add	r0, r0, r0, lsl #3
    1af4:	e59fb18c 	ldr	fp, =0x1c88
    1af8:	e08b7100 	add	r7, fp, r0, lsl #2
    1afc:	e087c108 	add	ip, r7, r8, lsl #2
    1b00:	e287001c 	add	r0, r7, #28
    1b04:	e0800109 	add	r0, r0, r9, lsl #2
    1b08:	e58d001c 	str	r0, [sp, #28]
    1b0c:	e2870014 	add	r0, r7, #20
    1b10:	e0800109 	add	r0, r0, r9, lsl #2
    1b14:	e58d0018 	str	r0, [sp, #24]
    1b18:	e2870010 	add	r0, r7, #16
    1b1c:	e58d0014 	str	r0, [sp, #20]
    1b20:	e59c3000 	ldr	r3, [ip]
    1b24:	e59d001c 	ldr	r0, [sp, #28]
    1b28:	e5904000 	ldr	r4, [r0]
    1b2c:	e59d0018 	ldr	r0, [sp, #24]
    1b30:	e5905000 	ldr	r5, [r0]
    1b34:	e59d0014 	ldr	r0, [sp, #20]
    1b38:	e5906000 	ldr	r6, [r0]
    1b3c:	ea00000a 	b	0x1b6c
    1b40:	e59d0008 	ldr	r0, [sp, #8]
    1b44:	e1500008 	cmp	r0, r8
    1b48:	0a000007 	beq	0x1b6c
    1b4c:	e58c3000 	str	r3, [ip]
    1b50:	e59d0010 	ldr	r0, [sp, #16]
    1b54:	e2400001 	sub	r0, r0, #1
    1b58:	e0800180 	add	r0, r0, r0, lsl #3
    1b5c:	e59fb124 	ldr	fp, =0x1c88
    1b60:	e08b0100 	add	r0, fp, r0, lsl #2
    1b64:	e080c108 	add	ip, r0, r8, lsl #2
    1b68:	e59c3000 	ldr	r3, [ip]
    1b6c:	e58d9004 	str	r9, [sp, #4]
    1b70:	e58d8008 	str	r8, [sp, #8]
    1b74:	e59d0010 	ldr	r0, [sp, #16]
    1b78:	e58d000c 	str	r0, [sp, #12]
    1b7c:	e04e0188 	sub	r0, lr, r8, lsl #3
    1b80:	e1a0a100 	lsl	sl, r0, #2
    1b84:	e5d10002 	ldrb	r0, [r1, #2]
    1b88:	e3500000 	cmp	r0, #0
    1b8c:	0a000007 	beq	0x1bb0
    1b90:	e3a00007 	mov	r0, #7
    1b94:	e1c33a10 	bic	r3, r3, r0, lsl sl
    1b98:	e59d0030 	ldr	r0, [sp, #48]	; 0x30
    1b9c:	e3500000 	cmp	r0, #0
    1ba0:	0a000002 	beq	0x1bb0
    1ba4:	e5d10002 	ldrb	r0, [r1, #2]
    1ba8:	e2000007 	and	r0, r0, #7
    1bac:	e1833a10 	orr	r3, r3, r0, lsl sl
    1bb0:	e04e0209 	sub	r0, lr, r9, lsl #4
    1bb4:	e1a0a080 	lsl	sl, r0, #1
    1bb8:	e1d100d3 	ldrsb	r0, [r1, #3]
    1bbc:	e3500000 	cmp	r0, #0
    1bc0:	ba000004 	blt	0x1bd8
    1bc4:	e3a00003 	mov	r0, #3
    1bc8:	e1c44a10 	bic	r4, r4, r0, lsl sl
    1bcc:	e5d10003 	ldrb	r0, [r1, #3]
    1bd0:	e2000003 	and	r0, r0, #3
    1bd4:	e1844a10 	orr	r4, r4, r0, lsl sl
    1bd8:	e1d100d4 	ldrsb	r0, [r1, #4]
    1bdc:	e3500000 	cmp	r0, #0
    1be0:	ba000004 	blt	0x1bf8
    1be4:	e3a00003 	mov	r0, #3
    1be8:	e1c55a10 	bic	r5, r5, r0, lsl sl
    1bec:	e5d10004 	ldrb	r0, [r1, #4]
    1bf0:	e2000003 	and	r0, r0, #3
    1bf4:	e1855a10 	orr	r5, r5, r0, lsl sl
    1bf8:	e5d10002 	ldrb	r0, [r1, #2]
    1bfc:	e3500001 	cmp	r0, #1
    1c00:	1a000008 	bne	0x1c28
    1c04:	e1d100d5 	ldrsb	r0, [r1, #5]
    1c08:	e3500000 	cmp	r0, #0
    1c0c:	ba000005 	blt	0x1c28
    1c10:	e5d10005 	ldrb	r0, [r1, #5]
    1c14:	e200a001 	and	sl, r0, #1
    1c18:	e3a00001 	mov	r0, #1
    1c1c:	e1c66e10 	bic	r6, r6, r0, lsl lr
    1c20:	e1866e1a 	orr	r6, r6, sl, lsl lr
    1c24:	e58d0020 	str	r0, [sp, #32]
    1c28:	e59d0000 	ldr	r0, [sp]
    1c2c:	e2800001 	add	r0, r0, #1
    1c30:	e58d0000 	str	r0, [sp]
    1c34:	e59d0000 	ldr	r0, [sp]
    1c38:	e59db02c 	ldr	fp, [sp, #44]	; 0x2c
    1c3c:	e150000b 	cmp	r0, fp
    1c40:	3affff89 	bcc	0x1a6c
    1c44:	e320f000 	nop	{0}
    1c48:	e35c0000 	cmp	ip, #0
    1c4c:	0a000009 	beq	0x1c78
    1c50:	e58c3000 	str	r3, [ip]
    1c54:	e59d001c 	ldr	r0, [sp, #28]
    1c58:	e5804000 	str	r4, [r0]
    1c5c:	e59d0018 	ldr	r0, [sp, #24]
    1c60:	e5805000 	str	r5, [r0]
    1c64:	e59d0020 	ldr	r0, [sp, #32]
    1c68:	e3500000 	cmp	r0, #0
    1c6c:	0a000001 	beq	0x1c78
    1c70:	e59d0014 	ldr	r0, [sp, #20]
    1c74:	e5806000 	str	r6, [r0]
    1c78:	e3a00000 	mov	r0, #0
    1c7c:	eaffff75 	b	0x1a58

    1c80:	7fffff00
    1c84:	000000c8
    1c88:	01c20800

    1c8c:	e3a00001 	mov	r0, #1
    1c90:	e12fff1e 	bx	lr
    1c94:	e59f007c 	ldr	r0, =0x1d18
    1c98:	e12fff1e 	bx	lr
    1c9c:	e92d4010 	push	{r4, lr}
    1ca0:	e1a04000 	mov	r4, r0
    1ca4:	e3a02050 	mov	r2, #80	; 0x50
    1ca8:	e59f106c 	ldr	r1, =0x1d1c
    1cac:	e1a00004 	mov	r0, r4
    1cb0:	eb000b57 	bl	0x4a14
    1cb4:	e8bd8010 	pop	{r4, pc}
    1cb8:	e92d4070 	push	{r4, r5, r6, lr}
    1cbc:	e1a05000 	mov	r5, r0
    1cc0:	e3a04000 	mov	r4, #0
    1cc4:	e3a02050 	mov	r2, #80	; 0x50
    1cc8:	e1a01005 	mov	r1, r5
    1ccc:	e2840038 	add	r0, r4, #56	; 0x38
    1cd0:	eb000b4f 	bl	0x4a14
    1cd4:	e8bd8070 	pop	{r4, r5, r6, pc}
    1cd8:	e92d4070 	push	{r4, r5, r6, lr}
    1cdc:	e1a05000 	mov	r5, r0
    1ce0:	e59f4038 	ldr	r4, =0x1d20
    1ce4:	e3a02050 	mov	r2, #80	; 0x50
    1ce8:	e1a01005 	mov	r1, r5
    1cec:	e284004c 	add	r0, r4, #76	; 0x4c
    1cf0:	eb000b25 	bl	0x498c
    1cf4:	e8bd8070 	pop	{r4, r5, r6, pc}
    1cf8:	e92d4010 	push	{r4, lr}
    1cfc:	e1a04000 	mov	r4, r0
    1d00:	e3a020ac 	mov	r2, #172	; 0xac
    1d04:	e59f1018 	ldr	r1, =0x1d24
    1d08:	e1a00004 	mov	r0, r4
    1d0c:	eb000b40 	bl	0x4a14
    1d10:	e3a00000 	mov	r0, #0
    1d14:	e8bd8010 	pop	{r4, pc}

    1d18:	40100000
    1d1c:	00000038
    1d20:	42400000
    1d24:	000001c8

    1d28:	e92d41f0 	push	{r4, r5, r6, r7, r8, lr}
    1d2c:	e1a04000 	mov	r4, r0
    1d30:	e1a05001 	mov	r5, r1
    1d34:	e1a08002 	mov	r8, r2
    1d38:	e1a06008 	mov	r6, r8
    1d3c:	e3a07000 	mov	r7, #0
    1d40:	ea000005 	b	0x1d5c
    1d44:	e3a00000 	mov	r0, #0
    1d48:	e1800a07 	orr	r0, r0, r7, lsl #20
    1d4c:	e3800ede 	orr	r0, r0, #3552	; 0xde0
    1d50:	e3800002 	orr	r0, r0, #2
    1d54:	e7860107 	str	r0, [r6, r7, lsl #2]
    1d58:	e2877001 	add	r7, r7, #1
    1d5c:	e3570a01 	cmp	r7, #4096	; 0x1000
    1d60:	3afffff7 	bcc	0x1d44
    1d64:	e3000dea 	movw	r0, #3562	; 0xdea
    1d68:	e5860000 	str	r0, [r6]
    1d6c:	e3a07000 	mov	r7, #0
    1d70:	ea000005 	b	0x1d8c
    1d74:	e0840a07 	add	r0, r4, r7, lsl #20
    1d78:	e3800ede 	orr	r0, r0, #3552	; 0xde0
    1d7c:	e380000a 	orr	r0, r0, #10
    1d80:	e0871a24 	add	r1, r7, r4, lsr #20
    1d84:	e7860101 	str	r0, [r6, r1, lsl #2]
    1d88:	e2877001 	add	r7, r7, #1
    1d8c:	e1570005 	cmp	r7, r5
    1d90:	3afffff7 	bcc	0x1d74
    1d94:	ee028f10 	mcr	15, 0, r8, cr2, cr0, {0}
    1d98:	ee028f30 	mcr	15, 0, r8, cr2, cr0, {1}
    1d9c:	eb000d9f 	bl	0x5420
    1da0:	eb000d7b 	bl	0x5394
    1da4:	eb000dd3 	bl	0x54f8
    1da8:	e8bd81f0 	pop	{r4, r5, r6, r7, r8, pc}
    1dac:	e3a00000 	mov	r0, #0
    1db0:	ee110f10 	mrc	15, 0, r0, cr1, cr0, {0}
    1db4:	e3011007 	movw	r1, #4103	; 0x1007
    1db8:	e1c00001 	bic	r0, r0, r1
    1dbc:	e3011001 	movw	r1, #4097	; 0x1001
    1dc0:	e1800001 	orr	r0, r0, r1
    1dc4:	ee010f10 	mcr	15, 0, r0, cr1, cr0, {0}
    1dc8:	e12fff1e 	bx	lr
    1dcc:	e3a00000 	mov	r0, #0
    1dd0:	ee110f10 	mrc	15, 0, r0, cr1, cr0, {0}
    1dd4:	e3011007 	movw	r1, #4103	; 0x1007
    1dd8:	e1c00001 	bic	r0, r0, r1
    1ddc:	e320f000 	nop	{0}
    1de0:	ee010f10 	mcr	15, 0, r0, cr1, cr0, {0}
    1de4:	e12fff1e 	bx	lr
    1de8:	e92d4010 	push	{r4, lr}
    1dec:	e24dd0b0 	sub	sp, sp, #176	; 0xb0
    1df0:	e1a04000 	mov	r4, r0
    1df4:	e28d0004 	add	r0, sp, #4
    1df8:	ebffffbe 	bl	0x1cf8
    1dfc:	e5dd0004 	ldrb	r0, [sp, #4]
    1e00:	e5840000 	str	r0, [r4]
    1e04:	e1dd01b2 	ldrh	r0, [sp, #18]
    1e08:	e5dd100c 	ldrb	r1, [sp, #12]
    1e0c:	e0000190 	mul	r0, r0, r1
    1e10:	e5840004 	str	r0, [r4, #4]
    1e14:	e5dd000e 	ldrb	r0, [sp, #14]
    1e18:	e1dd11b0 	ldrh	r1, [sp, #16]
    1e1c:	e0000190 	mul	r0, r0, r1
    1e20:	e5840008 	str	r0, [r4, #8]
    1e24:	e5dd000e 	ldrb	r0, [sp, #14]
    1e28:	e584000c 	str	r0, [r4, #12]
    1e2c:	e3a00000 	mov	r0, #0
    1e30:	e5840010 	str	r0, [r4, #16]
    1e34:	e28dd0b0 	add	sp, sp, #176	; 0xb0
    1e38:	e8bd8010 	pop	{r4, pc}
    1e3c:	e92d4010 	push	{r4, lr}
    1e40:	eb00032f 	bl	0x2b04
    1e44:	e1a04000 	mov	r4, r0
    1e48:	e3540000 	cmp	r4, #0
    1e4c:	0a000003 	beq	0x1e60
    1e50:	e28f0064 	adr	r0, 0x1ebc
    1e54:	ebfffcdc 	bl	0x11cc
    1e58:	e1a00004 	mov	r0, r4
    1e5c:	e8bd8010 	pop	{r4, pc}
    1e60:	eb00056b 	bl	0x3414
    1e64:	e1a04000 	mov	r4, r0
    1e68:	e3540000 	cmp	r4, #0
    1e6c:	0a000003 	beq	0x1e80
    1e70:	e28f0060 	adr	r0, 0x1ed8
    1e74:	ebfffcd4 	bl	0x11cc
    1e78:	e1a00004 	mov	r0, r4
    1e7c:	eafffff6 	b	0x1e5c
    1e80:	e28f0068 	adr	r0, 0x1ef0
    1e84:	ebfffcd0 	bl	0x11cc
    1e88:	e3a00001 	mov	r0, #1
    1e8c:	eb000381 	bl	0x2c98
    1e90:	eafffff1 	b	0x1e5c
    1e94:	e92d4010 	push	{r4, lr}
    1e98:	eb0003ce 	bl	0x2dd8
    1e9c:	eb00001b 	bl	0x1f10
    1ea0:	e3a00000 	mov	r0, #0
    1ea4:	e8bd8010 	pop	{r4, pc}
    1ea8:	e92d4010 	push	{r4, lr}
    1eac:	e1a04000 	mov	r4, r0
    1eb0:	e1a00004 	mov	r0, r4
    1eb4:	eb0004a6 	bl	0x3154
    1eb8:	e8bd8010 	pop	{r4, pc}

    1ebc:	"NB0 : nand phy init fail\n",0
    1ed8:	"NB0 : nand scan fail\n",0
    1ef0:	"NB0 : nand phy init ok\n",0

    1f08:	e3a00000 	mov	r0, #0
    1f0c:	e12fff1e 	bx	lr

    1f10:	e3a00000 	mov	r0, #0
    1f14:	e12fff1e 	bx	lr

    1f18:	e1a01000 	mov	r1, r0
    1f1c:	e59f0320 	ldr	r0, =0x2244
    1f20:	e5900000 	ldr	r0, [r0]
    1f24:	e12fff1e 	bx	lr

    1f28:	e1a01000 	mov	r1, r0
    1f2c:	e3a00000 	mov	r0, #0
    1f30:	e59f230c 	ldr	r2, =0x2244
    1f34:	e5922000 	ldr	r2, [r2]
    1f38:	e5820000 	str	r0, [r2]
    1f3c:	e12fff1e 	bx	lr

    1f40:	e92d4030 	push	{r4, r5, lr}
    1f44:	e1a04000 	mov	r4, r0
    1f48:	e1a02001 	mov	r2, r1
    1f4c:	e8920021 	ldm	r2, {r0, r5}
    1f50:	e1800285 	orr	r0, r0, r5, lsl #5
    1f54:	e5925008 	ldr	r5, [r2, #8]
    1f58:	e1800385 	orr	r0, r0, r5, lsl #7
    1f5c:	e592500c 	ldr	r5, [r2, #12]
    1f60:	e1800485 	orr	r0, r0, r5, lsl #9
    1f64:	e5925010 	ldr	r5, [r2, #16]
    1f68:	e1800805 	orr	r0, r0, r5, lsl #16
    1f6c:	e5925014 	ldr	r5, [r2, #20]
    1f70:	e1800a85 	orr	r0, r0, r5, lsl #21
    1f74:	e5925018 	ldr	r5, [r2, #24]
    1f78:	e1800b85 	orr	r0, r0, r5, lsl #23
    1f7c:	e592501c 	ldr	r5, [r2, #28]
    1f80:	e1800c85 	orr	r0, r0, r5, lsl #25
    1f84:	e1a01002 	mov	r1, r2
    1f88:	e5925024 	ldr	r5, [r2, #36]	; 0x24
    1f8c:	e1803e85 	orr	r3, r0, r5, lsl #29
    1f90:	e59f02ac 	ldr	r0, =0x2244
    1f94:	e5900000 	ldr	r0, [r0]
    1f98:	e5803000 	str	r3, [r0]
    1f9c:	e1a01002 	mov	r1, r2
    1fa0:	e59f529c 	ldr	r5, =0x2244
    1fa4:	e5920028 	ldr	r0, [r2, #40]	; 0x28
    1fa8:	e5955000 	ldr	r5, [r5]
    1fac:	e5850018 	str	r0, [r5, #24]
    1fb0:	e3a00000 	mov	r0, #0
    1fb4:	e8bd8030 	pop	{r4, r5, pc}

    1fb8:	e92d41f0 	push	{r4, r5, r6, r7, r8, lr}
    1fbc:	e1a07000 	mov	r7, r0
    1fc0:	e1a04001 	mov	r4, r1
    1fc4:	e1a05002 	mov	r5, r2
    1fc8:	e1a06003 	mov	r6, r3
    1fcc:	e59f0274 	ldr	r0, =0x2248
    1fd0:	e0000004 	and	r0, r0, r4
    1fd4:	e2401507 	sub	r1, r0, #29360128	; 0x1c00000
    1fd8:	e2511a03 	subs	r1, r1, #12288	; 0x3000
    1fdc:	1a000003 	bne	0x1ff0
    1fe0:	e1a01006 	mov	r1, r6
    1fe4:	e1a00005 	mov	r0, r5
    1fe8:	eb000a56 	bl	0x4948
    1fec:	ea000002 	b	0x1ffc
    1ff0:	e1a01006 	mov	r1, r6
    1ff4:	e1a00004 	mov	r0, r4
    1ff8:	eb000a52 	bl	0x4948
    1ffc:	e59f0240 	ldr	r0, =0x2244
    2000:	e5900000 	ldr	r0, [r0]
    2004:	e5804004 	str	r4, [r0, #4]
    2008:	e59f0234 	ldr	r0, =0x2244
    200c:	e5900000 	ldr	r0, [r0]
    2010:	e5805008 	str	r5, [r0, #8]
    2014:	e59f0228 	ldr	r0, =0x2244
    2018:	e5900000 	ldr	r0, [r0]
    201c:	e580600c 	str	r6, [r0, #12]
    2020:	e59f021c 	ldr	r0, =0x2244
    2024:	e5900000 	ldr	r0, [r0]
    2028:	e5900000 	ldr	r0, [r0]
    202c:	e3800102 	orr	r0, r0, #-2147483648	; 0x80000000
    2030:	e59f120c 	ldr	r1, =0x2244
    2034:	e5911000 	ldr	r1, [r1]
    2038:	e5810000 	str	r0, [r1]
    203c:	e3a00000 	mov	r0, #0
    2040:	e8bd81f0 	pop	{r4, r5, r6, r7, r8, pc}

    2044:	e1a01000 	mov	r1, r0
    2048:	e59f01f4 	ldr	r0, =0x2244
    204c:	e5900000 	ldr	r0, [r0]
    2050:	e5900000 	ldr	r0, [r0]
    2054:	e3800102 	orr	r0, r0, #-2147483648	; 0x80000000
    2058:	e59f21e4 	ldr	r2, =0x2244
    205c:	e5922000 	ldr	r2, [r2]
    2060:	e5820000 	str	r0, [r2]
    2064:	e3a00000 	mov	r0, #0
    2068:	e12fff1e 	bx	lr

    206c:	e1a01000 	mov	r1, r0
    2070:	e59f01cc 	ldr	r0, =0x2244
    2074:	e5900000 	ldr	r0, [r0]
    2078:	e5900000 	ldr	r0, [r0]
    207c:	e3c00103 	bic	r0, r0, #-1073741824	; 0xc0000000
    2080:	e59f21bc 	ldr	r2, =0x2244
    2084:	e5922000 	ldr	r2, [r2]
    2088:	e5820000 	str	r0, [r2]
    208c:	e3a00000 	mov	r0, #0
    2090:	e12fff1e 	bx	lr

    2094:	e1a01000 	mov	r1, r0
    2098:	e59f01a4 	ldr	r0, =0x2244
    209c:	e5900000 	ldr	r0, [r0]
    20a0:	e5900000 	ldr	r0, [r0]
    20a4:	e2000101 	and	r0, r0, #1073741824	; 0x40000000
    20a8:	e12fff1e 	bx	lr

    20ac:	e1a01000 	mov	r1, r0
    20b0:	e3a00000 	mov	r0, #0
    20b4:	e12fff1e 	bx	lr

    20b8:	e59f018c 	ldr	r0, =CCM_IO_BASE
    20bc:	e5900060 	ldr	r0, [r0, #96]	; 0x60
    20c0:	e3800a02 	orr	r0, r0, #8192	; 0x2000
    20c4:	e59f1180 	ldr	r1, =CCM_IO_BASE
    20c8:	e5810060 	str	r0, [r1, #96]	; 0x60
    20cc:	e12fff1e 	bx	lr

    20d0:	e59f0174 	ldr	r0, =CCM_IO_BASE
    20d4:	e5900060 	ldr	r0, [r0, #96]	; 0x60
    20d8:	e3c00a02 	bic	r0, r0, #8192	; 0x2000
    20dc:	e59f1168 	ldr	r1, =CCM_IO_BASE
    20e0:	e5810060 	str	r0, [r1, #96]	; 0x60
    20e4:	e12fff1e 	bx	lr

    20e8:	e92d47f0 	push	{r4, r5, r6, r7, r8, r9, sl, lr}
    20ec:	e59f0158 	ldr	r0, =CCM_IO_BASE
    20f0:	e5904020 	ldr	r4, [r0, #32]
    20f4:	e7e15854 	ubfx	r5, r4, #16, #2
    20f8:	e7e46454 	ubfx	r6, r4, #8, #5
    20fc:	e7e10254 	ubfx	r0, r4, #4, #2
    2100:	e2807001 	add	r7, r0, #1
    2104:	e2040003 	and	r0, r4, #3
    2108:	e2808001 	add	r8, r0, #1
    210c:	e0861086 	add	r1, r6, r6, lsl #1
    2110:	e1a01181 	lsl	r1, r1, #3
    2114:	e1600781 	smulbb	r0, r1, r7
    2118:	e1a01005 	mov	r1, r5
    211c:	eb000abc 	bl	0x4c14
    2120:	e1a0a000 	mov	sl, r0
    2124:	e1a01008 	mov	r1, r8
    2128:	eb000ab9 	bl	0x4c14
    212c:	e1a09000 	mov	r9, r0
    2130:	e1a00009 	mov	r0, r9
    2134:	e8bd87f0 	pop	{r4, r5, r6, r7, r8, r9, sl, pc}
    2138:	e92d41f0 	push	{r4, r5, r6, r7, r8, lr}
    213c:	e1a04000 	mov	r4, r0
    2140:	e1a05084 	lsl	r5, r4, #1
    2144:	ebffffe7 	bl	0x20e8
    2148:	e1a08000 	mov	r8, r0
    214c:	e1a01005 	mov	r1, r5
    2150:	e1a00008 	mov	r0, r8
    2154:	eb000aae 	bl	0x4c14
    2158:	e1a07000 	mov	r7, r0
    215c:	e1a01005 	mov	r1, r5
    2160:	e1a00008 	mov	r0, r8
    2164:	eb000aaa 	bl	0x4c14
    2168:	e3510000 	cmp	r1, #0
    216c:	0a000000 	beq	0x2174
    2170:	e2877001 	add	r7, r7, #1
    2174:	e3570000 	cmp	r7, #0
    2178:	0a000004 	beq	0x2190
    217c:	e3570010 	cmp	r7, #16
    2180:	9a000001 	bls	0x218c
    2184:	e3a0700f 	mov	r7, #15
    2188:	ea000000 	b	0x2190

    218c:	e2477001 	sub	r7, r7, #1
    2190:	e59f00b4 	ldr	r0, =CCM_IO_BASE
    2194:	e5906080 	ldr	r6, [r0, #128]	; 0x80
    2198:	e3866102 	orr	r6, r6, #-2147483648	; 0x80000000
    219c:	e3c66403 	bic	r6, r6, #50331648	; 0x3000000
    21a0:	e3866402 	orr	r6, r6, #33554432	; 0x2000000
    21a4:	e3c66a03 	bic	r6, r6, #12288	; 0x3000
    21a8:	e3c6600f 	bic	r6, r6, #15
    21ac:	e207000f 	and	r0, r7, #15
    21b0:	e1866000 	orr	r6, r6, r0
    21b4:	e59f0090 	ldr	r0, =CCM_IO_BASE
    21b8:	e5806080 	str	r6, [r0, #128]	; 0x80
    21bc:	e8bd81f0 	pop	{r4, r5, r6, r7, r8, pc}
    21c0:	e92d41f0 	push	{r4, r5, r6, r7, r8, lr}
    21c4:	ebffffc7 	bl	0x20e8
    21c8:	e1a07000 	mov	r7, r0
    21cc:	e59f0078 	ldr	r0, =CCM_IO_BASE
    21d0:	e5904080 	ldr	r4, [r0, #128]	; 0x80
    21d4:	e204000f 	and	r0, r4, #15
    21d8:	e2806001 	add	r6, r0, #1
    21dc:	e1a01086 	lsl	r1, r6, #1
    21e0:	e1a00007 	mov	r0, r7
    21e4:	eb000a8a 	bl	0x4c14
    21e8:	e1a05000 	mov	r5, r0
    21ec:	e1a00005 	mov	r0, r5
    21f0:	e8bd81f0 	pop	{r4, r5, r6, r7, r8, pc}

    21f4:	e92d4010 	push	{r4, lr}
    21f8:	e1a04000 	mov	r4, r0
    21fc:	e3a02001 	mov	r2, #1
    2200:	e1a01004 	mov	r1, r4
    2204:	e59f0044 	ldr	r0, =0x2250
    2208:	ebfffda6 	bl	0x18a8
    220c:	e8bd8010 	pop	{r4, pc}

    2210:	e12fff1e 	bx	lr

    2214:	e12fff1e 	bx	lr

    2218:	e1a01000 	mov	r1, r0
    221c:	e3a00207 	mov	r0, #1879048192	; 0x70000000
    2220:	e12fff1e 	bx	lr

    2224:	e12fff1e 	bx	lr

    2228:	e12fff1e 	bx	lr

    222c:	e12fff1e 	bx	lr

    2230:	e12fff1e 	bx	lr

    2234:	e92d4010 	push	{r4, lr}
    2238:	e1a04000 	mov	r4, r0
    223c:	e3a00000 	mov	r0, #0
    2240:	e8bd8010 	pop	{r4, pc}

    2244:	00005b04
    2248:	01c03000
    224c:	01c20000	; CCM_IO_BASE
    2250:	7fffff00

    2254:	e92d40f0 	push	{r4, r5, r6, r7, lr}
    2258:	e1cd41dc 	ldrd	r4, [sp, #28]
    225c:	e59d6018 	ldr	r6, [sp, #24]
    2260:	e59d7014 	ldr	r7, [sp, #20]
    2264:	e5803004 	str	r3, [r0, #4]
    2268:	e5c02008 	strb	r2, [r0, #8]
    226c:	e5c07009 	strb	r7, [r0, #9]
    2270:	e5c0600a 	strb	r6, [r0, #10]
    2274:	e5801010 	str	r1, [r0, #16]
    2278:	e3a01000 	mov	r1, #0
    227c:	e580400c 	str	r4, [r0, #12]
    2280:	e5c0500b 	strb	r5, [r0, #11]
    2284:	e5801000 	str	r1, [r0]
    2288:	e8bd80f0 	pop	{r4, r5, r6, r7, pc}
    228c:	e92d40f0 	push	{r4, r5, r6, r7, lr}
    2290:	e1a05482 	lsl	r5, r2, #9
    2294:	e59f4534 	ldr	r4, =0x27d0
    2298:	e59d6014 	ldr	r6, [sp, #20]
    229c:	e1d470bc 	ldrh	r7, [r4, #12]
    22a0:	e3560006 	cmp	r6, #6
    22a4:	e3a04000 	mov	r4, #0
    22a8:	e0201790 	mla	r0, r0, r7, r1
    22ac:	e1a01482 	lsl	r1, r2, #9
    22b0:	e7e71451 	ubfx	r1, r1, #8, #8
    22b4:	308ff106 	addcc	pc, pc, r6, lsl #2
    22b8:	e8bd80f0 	pop	{r4, r5, r6, r7, pc}
    22bc:	e8bd80f0 	pop	{r4, r5, r6, r7, pc}
    22c0:	ea000003 	b	0x22d4
    22c4:	ea000004 	b	0x22dc
    22c8:	ea000006 	b	0x22e8
    22cc:	ea00000b 	b	0x2300
    22d0:	ea000012 	b	0x2320
    22d4:	e5c34000 	strb	r4, [r3]
    22d8:	e8bd80f0 	pop	{r4, r5, r6, r7, pc}
    22dc:	e5c34000 	strb	r4, [r3]
    22e0:	e5c31001 	strb	r1, [r3, #1]
    22e4:	e8bd80f0 	pop	{r4, r5, r6, r7, pc}
    22e8:	e1a01420 	lsr	r1, r0, #8
    22ec:	e5c30000 	strb	r0, [r3]
    22f0:	e1a00820 	lsr	r0, r0, #16
    22f4:	e5c31001 	strb	r1, [r3, #1]
    22f8:	e5c30002 	strb	r0, [r3, #2]
    22fc:	e8bd80f0 	pop	{r4, r5, r6, r7, pc}
    2300:	e2952000 	adds	r2, r5, #0
    2304:	13a02001 	movne	r2, #1
    2308:	e5c32000 	strb	r2, [r3]
    230c:	e5c31001 	strb	r1, [r3, #1]
    2310:	e5c30002 	strb	r0, [r3, #2]
    2314:	e1a00420 	lsr	r0, r0, #8
    2318:	e5c30003 	strb	r0, [r3, #3]
    231c:	e8bd80f0 	pop	{r4, r5, r6, r7, pc}
    2320:	e5c34000 	strb	r4, [r3]
    2324:	e5c31001 	strb	r1, [r3, #1]
    2328:	e1a01420 	lsr	r1, r0, #8
    232c:	e5c30002 	strb	r0, [r3, #2]
    2330:	e1a00820 	lsr	r0, r0, #16
    2334:	e5c31003 	strb	r1, [r3, #3]
    2338:	e5c30004 	strb	r0, [r3, #4]
    233c:	e8bd80f0 	pop	{r4, r5, r6, r7, pc}
    2340:	e92d4038 	push	{r3, r4, r5, lr}
    2344:	e1a02000 	mov	r2, r0
    2348:	e59f4480 	ldr	r4, =0x27d0
    234c:	e3a00000 	mov	r0, #0
    2350:	e5d41006 	ldrb	r1, [r4, #6]
    2354:	e3510000 	cmp	r1, #0
    2358:	1a000004 	bne	0x2370
    235c:	e3520002 	cmp	r2, #2
    2360:	8a000043 	bhi	0x2474
    2364:	e3520000 	cmp	r2, #0
    2368:	0a00000a 	beq	0x2398
    236c:	ea00003e 	b	0x246c
    2370:	e3510001 	cmp	r1, #1
    2374:	1a000002 	bne	0x2384
    2378:	e3520001 	cmp	r2, #1
    237c:	8a00003c 	bhi	0x2474
    2380:	ea000003 	b	0x2394
    2384:	e3510002 	cmp	r1, #2
    2388:	1a000003 	bne	0x239c
    238c:	e3520002 	cmp	r2, #2
    2390:	8a000037 	bhi	0x2474
    2394:	e20200ff 	and	r0, r2, #255	; 0xff
    2398:	e8bd8038 	pop	{r3, r4, r5, pc}
    239c:	e3510003 	cmp	r1, #3
    23a0:	e1a03082 	lsl	r3, r2, #1
    23a4:	1a000002 	bne	0x23b4
    23a8:	e3520002 	cmp	r2, #2
    23ac:	8a000030 	bhi	0x2474
    23b0:	ea000010 	b	0x23f8
    23b4:	e3510004 	cmp	r1, #4
    23b8:	1a00000a 	bne	0x23e8
    23bc:	e3520004 	cmp	r2, #4
    23c0:	8a00002b 	bhi	0x2474
    23c4:	e3520000 	cmp	r2, #0
    23c8:	08bd8038 	popeq	{r3, r4, r5, pc}
    23cc:	e3520001 	cmp	r2, #1
    23d0:	0a000019 	beq	0x243c
    23d4:	e3520002 	cmp	r2, #2
    23d8:	0a000019 	beq	0x2444
    23dc:	e3520003 	cmp	r2, #3
    23e0:	18bd8038 	popne	{r3, r4, r5, pc}
    23e4:	ea000018 	b	0x244c
    23e8:	e3510005 	cmp	r1, #5
    23ec:	1a000003 	bne	0x2400
    23f0:	e3520004 	cmp	r2, #4
    23f4:	8a00001e 	bhi	0x2474
    23f8:	e20300ff 	and	r0, r3, #255	; 0xff
    23fc:	e8bd8038 	pop	{r3, r4, r5, pc}
    2400:	e3510008 	cmp	r1, #8
    2404:	1a00001a 	bne	0x2474
    2408:	e3520008 	cmp	r2, #8
    240c:	8a000018 	bhi	0x2474
    2410:	e3520008 	cmp	r2, #8
    2414:	308ff102 	addcc	pc, pc, r2, lsl #2
    2418:	e8bd8038 	pop	{r3, r4, r5, pc}
    241c:	e8bd8038 	pop	{r3, r4, r5, pc}
    2420:	ea000005 	b	0x243c
    2424:	ea000006 	b	0x2444
    2428:	ea000007 	b	0x244c
    242c:	ea000008 	b	0x2454
    2430:	ea000009 	b	0x245c
    2434:	ea00000a 	b	0x2464
    2438:	ea00000b 	b	0x246c
    243c:	e3a00002 	mov	r0, #2
    2440:	e8bd8038 	pop	{r3, r4, r5, pc}
    2444:	e3a00001 	mov	r0, #1
    2448:	e8bd8038 	pop	{r3, r4, r5, pc}
    244c:	e3a00003 	mov	r0, #3
    2450:	e8bd8038 	pop	{r3, r4, r5, pc}
    2454:	e3a00004 	mov	r0, #4
    2458:	e8bd8038 	pop	{r3, r4, r5, pc}
    245c:	e3a00006 	mov	r0, #6
    2460:	e8bd8038 	pop	{r3, r4, r5, pc}
    2464:	e3a00005 	mov	r0, #5
    2468:	e8bd8038 	pop	{r3, r4, r5, pc}
    246c:	e3a00007 	mov	r0, #7
    2470:	e8bd8038 	pop	{r3, r4, r5, pc}
    2474:	e1d430b2 	ldrh	r3, [r4, #2]
    2478:	e58d3000 	str	r3, [sp]
    247c:	e1a03000 	mov	r3, r0
    2480:	e59f034c 	ldr	r0, =0x27d4
    2484:	ebffff6a 	bl	0x2234
    2488:	e3a000ff 	mov	r0, #255	; 0xff
    248c:	e8bd8038 	pop	{r3, r4, r5, pc}
    2490:	e59f2338 	ldr	r2, =0x27d0
    2494:	e1a01000 	mov	r1, r0
    2498:	e92d4010 	push	{r4, lr}
    249c:	e3a00000 	mov	r0, #0
    24a0:	e5d22006 	ldrb	r2, [r2, #6]
    24a4:	e3520000 	cmp	r2, #0
    24a8:	08bd8010 	popeq	{r4, pc}
    24ac:	e3520001 	cmp	r2, #1
    24b0:	13520002 	cmpne	r2, #2
    24b4:	020100ff 	andeq	r0, r1, #255	; 0xff
    24b8:	0a000007 	beq	0x24dc
    24bc:	e3520003 	cmp	r2, #3
    24c0:	e1a030a1 	lsr	r3, r1, #1
    24c4:	13520004 	cmpne	r2, #4
    24c8:	020300ff 	andeq	r0, r3, #255	; 0xff
    24cc:	0a000002 	beq	0x24dc
    24d0:	e3520005 	cmp	r2, #5
    24d4:	13520008 	cmpne	r2, #8
    24d8:	07e000d1 	ubfxeq	r0, r1, #1, #1
    24dc:	e3500000 	cmp	r0, #0
    24e0:	13500001 	cmpne	r0, #1
    24e4:	08bd8010 	popeq	{r4, pc}
    24e8:	e28f0fba 	adr	r0, 0x27d8
    24ec:	ebffff50 	bl	0x2234
    24f0:	e3a000ff 	mov	r0, #255	; 0xff
    24f4:	e8bd8010 	pop	{r4, pc}
    24f8:	e92d4030 	push	{r4, r5, lr}
    24fc:	e3500070 	cmp	r0, #112	; 0x70
    2500:	e1a05000 	mov	r5, r0
    2504:	e24dd02c 	sub	sp, sp, #44	; 0x2c
    2508:	13550071 	cmpne	r5, #113	; 0x71
    250c:	e3a04000 	mov	r4, #0
    2510:	0a00000b 	beq	0x2544
    2514:	e3550078 	cmp	r5, #120	; 0x78
    2518:	e59f02b0 	ldr	r0, =0x27d0
    251c:	13a04001 	movne	r4, #1
    2520:	03a04003 	moveq	r4, #3
    2524:	e3a02000 	mov	r2, #0
    2528:	e20430ff 	and	r3, r4, #255	; 0xff
    252c:	e58d3000 	str	r3, [sp]
    2530:	e28d3024 	add	r3, sp, #36	; 0x24
    2534:	e1d000be 	ldrh	r0, [r0, #14]
    2538:	e0000190 	mul	r0, r0, r1
    253c:	e1a01002 	mov	r1, r2
    2540:	ebffff51 	bl	0x228c
    2544:	e3a03000 	mov	r3, #0
    2548:	e3a02001 	mov	r2, #1
    254c:	e1cd20f0 	strd	r2, [sp]
    2550:	e1a01005 	mov	r1, r5
    2554:	e1cd20f8 	strd	r2, [sp, #8]
    2558:	e28d3024 	add	r3, sp, #36	; 0x24
    255c:	e1a02004 	mov	r2, r4
    2560:	e28d0010 	add	r0, sp, #16
    2564:	ebffff3a 	bl	0x2254
    2568:	e28d0010 	add	r0, sp, #16
    256c:	eb000654 	bl	0x3ec4
    2570:	e28dd02c 	add	sp, sp, #44	; 0x2c
    2574:	e8bd8030 	pop	{r4, r5, pc}
    2578:	e92d4070 	push	{r4, r5, r6, lr}
    257c:	e30f4fff 	movw	r4, #65535	; 0xffff
    2580:	ebffffc2 	bl	0x2490
    2584:	e1a05000 	mov	r5, r0
    2588:	e2544001 	subs	r4, r4, #1
    258c:	3a000006 	bcc	0x25ac
    2590:	e1a00005 	mov	r0, r5
    2594:	eb00067a 	bl	0x3f84
    2598:	e3500000 	cmp	r0, #0
    259c:	1afffff9 	bne	0x2588
    25a0:	e3540000 	cmp	r4, #0
    25a4:	a3a00000 	movge	r0, #0
    25a8:	a8bd8070 	popge	{r4, r5, r6, pc}
    25ac:	e3e0000d 	mvn	r0, #13
    25b0:	e8bd8070 	pop	{r4, r5, r6, pc}
    25b4:	e12fff1e 	bx	lr
    25b8:	e12fff1e 	bx	lr
    25bc:	e59f1244 	ldr	r1, =0x2808
    25c0:	e200007f 	and	r0, r0, #127	; 0x7f
    25c4:	e0810080 	add	r0, r1, r0, lsl #1
    25c8:	e1d000b0 	ldrh	r0, [r0]
    25cc:	e12fff1e 	bx	lr
    25d0:	e92d4070 	push	{r4, r5, r6, lr}
    25d4:	e1a05000 	mov	r5, r0
    25d8:	e24dd028 	sub	sp, sp, #40	; 0x28
    25dc:	e30f4fff 	movw	r4, #65535	; 0xffff
    25e0:	eb000651 	bl	0x3f2c
    25e4:	e3a03000 	mov	r3, #0
    25e8:	e3a010ff 	mov	r1, #255	; 0xff
    25ec:	e58d3000 	str	r3, [sp]
    25f0:	e1a02003 	mov	r2, r3
    25f4:	e58d3004 	str	r3, [sp, #4]
    25f8:	e28d0014 	add	r0, sp, #20
    25fc:	e58d3008 	str	r3, [sp, #8]
    2600:	e58d300c 	str	r3, [sp, #12]
    2604:	ebffff12 	bl	0x2254
    2608:	e28d0014 	add	r0, sp, #20
    260c:	eb00063d 	bl	0x3f08
    2610:	e1a06000 	mov	r6, r0
    2614:	e3a00000 	mov	r0, #0
    2618:	eb00064c 	bl	0x3f50
    261c:	e2544001 	subs	r4, r4, #1
    2620:	3a00000f 	bcc	0x2664
    2624:	e3a00000 	mov	r0, #0
    2628:	eb000655 	bl	0x3f84
    262c:	e3500000 	cmp	r0, #0
    2630:	1afffff9 	bne	0x261c
    2634:	e3540000 	cmp	r4, #0
    2638:	ba000009 	blt	0x2664
    263c:	e3a00001 	mov	r0, #1
    2640:	eb000642 	bl	0x3f50
    2644:	e2544001 	subs	r4, r4, #1
    2648:	3a000005 	bcc	0x2664
    264c:	e3a00001 	mov	r0, #1
    2650:	eb00064b 	bl	0x3f84
    2654:	e3500000 	cmp	r0, #0
    2658:	1afffff9 	bne	0x2644
    265c:	e3540000 	cmp	r4, #0
    2660:	aa000002 	bge	0x2670
    2664:	e3e0000d 	mvn	r0, #13
    2668:	e28dd028 	add	sp, sp, #40	; 0x28
    266c:	e8bd8070 	pop	{r4, r5, r6, pc}
    2670:	e1a00005 	mov	r0, r5
    2674:	eb00063e 	bl	0x3f74
    2678:	e1a00006 	mov	r0, r6
    267c:	eafffff9 	b	0x2668
    2680:	e92d4ff0 	push	{r4, r5, r6, r7, r8, r9, sl, fp, lr}
    2684:	e1a04000 	mov	r4, r0
    2688:	e59f8140 	ldr	r8, =0x27d0
    268c:	e24dd0bc 	sub	sp, sp, #188	; 0xbc
    2690:	e1a0a001 	mov	sl, r1
    2694:	e5d8000a 	ldrb	r0, [r8, #10]
    2698:	e3500001 	cmp	r0, #1
    269c:	1a00000e 	bne	0x26dc
    26a0:	e3a03004 	mov	r3, #4
    26a4:	e58d3000 	str	r3, [sp]
    26a8:	e28d3064 	add	r3, sp, #100	; 0x64
    26ac:	e1d410b4 	ldrh	r1, [r4, #4]
    26b0:	e3a02000 	mov	r2, #0
    26b4:	e1d400b2 	ldrh	r0, [r4, #2]
    26b8:	ebfffef3 	bl	0x228c
    26bc:	e3a03001 	mov	r3, #1
    26c0:	e3a02000 	mov	r2, #0
    26c4:	e1cd20f8 	strd	r2, [sp, #8]
    26c8:	e58d2004 	str	r2, [sp, #4]
    26cc:	e3a02004 	mov	r2, #4
    26d0:	e58d3000 	str	r3, [sp]
    26d4:	e28d3064 	add	r3, sp, #100	; 0x64
    26d8:	ea00000d 	b	0x2714
    26dc:	e3a03005 	mov	r3, #5
    26e0:	e3a02000 	mov	r2, #0
    26e4:	e58d3000 	str	r3, [sp]
    26e8:	e28d3064 	add	r3, sp, #100	; 0x64
    26ec:	e1d410b4 	ldrh	r1, [r4, #4]
    26f0:	e1d400b2 	ldrh	r0, [r4, #2]
    26f4:	ebfffee4 	bl	0x228c
    26f8:	e3a03000 	mov	r3, #0
    26fc:	e3a02005 	mov	r2, #5
    2700:	e58d3000 	str	r3, [sp]
    2704:	e58d3004 	str	r3, [sp, #4]
    2708:	e58d3008 	str	r3, [sp, #8]
    270c:	e58d300c 	str	r3, [sp, #12]
    2710:	e28d3064 	add	r3, sp, #100	; 0x64
    2714:	e3a01000 	mov	r1, #0
    2718:	e28d0014 	add	r0, sp, #20
    271c:	ebfffecc 	bl	0x2254
    2720:	e3a03000 	mov	r3, #0
    2724:	e3a01005 	mov	r1, #5
    2728:	e58d3000 	str	r3, [sp]
    272c:	e1a02003 	mov	r2, r3
    2730:	e58d3004 	str	r3, [sp, #4]
    2734:	e28d5014 	add	r5, sp, #20
    2738:	e58d3008 	str	r3, [sp, #8]
    273c:	e28d0028 	add	r0, sp, #40	; 0x28
    2740:	e58d300c 	str	r3, [sp, #12]
    2744:	ebfffec2 	bl	0x2254
    2748:	e3a03000 	mov	r3, #0
    274c:	e3a010e0 	mov	r1, #224	; 0xe0
    2750:	e58d3000 	str	r3, [sp]
    2754:	e1a02003 	mov	r2, r3
    2758:	e58d3004 	str	r3, [sp, #4]
    275c:	e2850028 	add	r0, r5, #40	; 0x28
    2760:	e58d3008 	str	r3, [sp, #8]
    2764:	e58d300c 	str	r3, [sp, #12]
    2768:	ebfffeb9 	bl	0x2254
    276c:	e3a03000 	mov	r3, #0
    2770:	e3a01030 	mov	r1, #48	; 0x30
    2774:	e58d3000 	str	r3, [sp]
    2778:	e1a02003 	mov	r2, r3
    277c:	e58d3004 	str	r3, [sp, #4]
    2780:	e285003c 	add	r0, r5, #60	; 0x3c
    2784:	e58d3008 	str	r3, [sp, #8]
    2788:	e58d300c 	str	r3, [sp, #12]
    278c:	ebfffeb0 	bl	0x2254
    2790:	e3a00000 	mov	r0, #0
    2794:	e3a02003 	mov	r2, #3
    2798:	e1500002 	cmp	r0, r2
    279c:	30801100 	addcc	r1, r0, r0, lsl #2
    27a0:	32800001 	addcc	r0, r0, #1
    27a4:	30853101 	addcc	r3, r5, r1, lsl #2
    27a8:	32833014 	addcc	r3, r3, #20
    27ac:	37853101 	strcc	r3, [r5, r1, lsl #2]
    27b0:	3afffff8 	bcc	0x2798
    27b4:	e5d40000 	ldrb	r0, [r4]
    27b8:	ebffff6e 	bl	0x2578
    27bc:	e1b05000 	movs	r5, r0
    27c0:	0a000011 	beq	0x280c
    27c4:	e1a00005 	mov	r0, r5
    27c8:	e28dd0bc 	add	sp, sp, #188	; 0xbc
    27cc:	e8bd8ff0 	pop	{r4, r5, r6, r7, r8, r9, sl, fp, pc}

    27d0:	00005b38
    27d4:	00005618

    27d8:	"wrong Rb connect Mode  ,RbConnectMode = %d\n",0

    2808:	00005518

    280c:	e5d40000 	ldrb	r0, [r4]
    2810:	ebffff1e 	bl	0x2490
    2814:	e1a0b000 	mov	fp, r0
    2818:	e5d40000 	ldrb	r0, [r4]
    281c:	eb0005c2 	bl	0x3f2c
    2820:	e1a0000b 	mov	r0, fp
    2824:	eb0005c9 	bl	0x3f50
    2828:	e1d801b0 	ldrh	r0, [r8, #16]
    282c:	e3100c01 	tst	r0, #256	; 0x100
    2830:	0a000081 	beq	0x2a3c
    2834:	e5980020 	ldr	r0, [r8, #32]
    2838:	e59f7288 	ldr	r7, =0x2ac8
    283c:	e3a09000 	mov	r9, #0
    2840:	e3a06000 	mov	r6, #0
    2844:	e7e70850 	ubfx	r0, r0, #16, #8
    2848:	e2400010 	sub	r0, r0, #16
    284c:	e3500020 	cmp	r0, #32
    2850:	35d40000 	ldrbcc	r0, [r4]
    2854:	37879100 	strcc	r9, [r7, r0, lsl #2]
    2858:	ea00005f 	b	0x29dc
    285c:	e5d41000 	ldrb	r1, [r4]
    2860:	e7973101 	ldr	r3, [r7, r1, lsl #2]
    2864:	e1530000 	cmp	r3, r0
    2868:	07879101 	streq	r9, [r7, r1, lsl #2]
    286c:	e3560000 	cmp	r6, #0
    2870:	0a000008 	beq	0x2898
    2874:	e5d40000 	ldrb	r0, [r4]
    2878:	e7971100 	ldr	r1, [r7, r0, lsl #2]
    287c:	eb0006d2 	bl	0x43cc
    2880:	e3500000 	cmp	r0, #0
    2884:	0a000003 	beq	0x2898
    2888:	e28f0f8f 	adr	r0, 0x2acc
    288c:	ebfffe68 	bl	0x2234
    2890:	e3e00000 	mvn	r0, #0
    2894:	eaffffcb 	b	0x27c8
    2898:	e1d801b0 	ldrh	r0, [r8, #16]
    289c:	e3100080 	tst	r0, #128	; 0x80
    28a0:	0a00002c 	beq	0x2958
    28a4:	e1d400b4 	ldrh	r0, [r4, #4]
    28a8:	ebffff43 	bl	0x25bc
    28ac:	eb00053c 	bl	0x3da4
    28b0:	eb000543 	bl	0x3dc4
    28b4:	e3a03001 	mov	r3, #1
    28b8:	e28d207c 	add	r2, sp, #124	; 0x7c
    28bc:	e58d3000 	str	r3, [sp]
    28c0:	e1a0300a 	mov	r3, sl
    28c4:	e5941008 	ldr	r1, [r4, #8]
    28c8:	e28d0014 	add	r0, sp, #20
    28cc:	eb000504 	bl	0x3ce4
    28d0:	e1a05000 	mov	r5, r0
    28d4:	eb000541 	bl	0x3de0
    28d8:	e375000c 	cmn	r5, #12
    28dc:	1a00002b 	bne	0x2990
    28e0:	e3a03001 	mov	r3, #1
    28e4:	e58d3000 	str	r3, [sp]
    28e8:	e1a0300a 	mov	r3, sl
    28ec:	e5941008 	ldr	r1, [r4, #8]
    28f0:	e28d207c 	add	r2, sp, #124	; 0x7c
    28f4:	e28d0014 	add	r0, sp, #20
    28f8:	eb0004f9 	bl	0x3ce4
    28fc:	e370000c 	cmn	r0, #12
    2900:	e1a05000 	mov	r5, r0
    2904:	1a000021 	bne	0x2990
    2908:	e5dd007c 	ldrb	r0, [sp, #124]	; 0x7c
    290c:	e35000ff 	cmp	r0, #255	; 0xff
    2910:	05dd007d 	ldrbeq	r0, [sp, #125]	; 0x7d
    2914:	035000ff 	cmpeq	r0, #255	; 0xff
    2918:	05dd007e 	ldrbeq	r0, [sp, #126]	; 0x7e
    291c:	035000ff 	cmpeq	r0, #255	; 0xff
    2920:	05dd007f 	ldrbeq	r0, [sp, #127]	; 0x7f
    2924:	035000ff 	cmpeq	r0, #255	; 0xff
    2928:	05dd0080 	ldrbeq	r0, [sp, #128]	; 0x80
    292c:	035000ff 	cmpeq	r0, #255	; 0xff
    2930:	05dd0081 	ldrbeq	r0, [sp, #129]	; 0x81
    2934:	035000ff 	cmpeq	r0, #255	; 0xff
    2938:	05dd0082 	ldrbeq	r0, [sp, #130]	; 0x82
    293c:	035000ff 	cmpeq	r0, #255	; 0xff
    2940:	1a00000e 	bne	0x2980
    2944:	e5dd0083 	ldrb	r0, [sp, #131]	; 0x83
    2948:	e35000ff 	cmp	r0, #255	; 0xff
    294c:	03a05000 	moveq	r5, #0
    2950:	0a00000e 	beq	0x2990
    2954:	ea000009 	b	0x2980
    2958:	e3a03001 	mov	r3, #1
    295c:	e28d207c 	add	r2, sp, #124	; 0x7c
    2960:	e58d3000 	str	r3, [sp]
    2964:	e1a0300a 	mov	r3, sl
    2968:	e5941008 	ldr	r1, [r4, #8]
    296c:	e28d0014 	add	r0, sp, #20
    2970:	eb0004db 	bl	0x3ce4
    2974:	e370000c 	cmn	r0, #12
    2978:	e1a05000 	mov	r5, r0
    297c:	1a000003 	bne	0x2990
    2980:	e5980020 	ldr	r0, [r8, #32]
    2984:	e7e70450 	ubfx	r0, r0, #8, #8
    2988:	e1500006 	cmp	r0, r6
    298c:	1a00000d 	bne	0x29c8
    2990:	e5982020 	ldr	r2, [r8, #32]
    2994:	e7e70852 	ubfx	r0, r2, #16, #8
    2998:	e2401010 	sub	r1, r0, #16
    299c:	e3510010 	cmp	r1, #16
    29a0:	2a000002 	bcs	0x29b0
    29a4:	e5d40000 	ldrb	r0, [r4]
    29a8:	ebffff08 	bl	0x25d0
    29ac:	ea00000f 	b	0x29f0
    29b0:	e2400020 	sub	r0, r0, #32
    29b4:	e3500010 	cmp	r0, #16
    29b8:	35d40000 	ldrbcc	r0, [r4]
    29bc:	328d106c 	addcc	r1, sp, #108	; 0x6c
    29c0:	3b00079a 	blcc	0x4830
    29c4:	ea000009 	b	0x29f0
    29c8:	e5d40000 	ldrb	r0, [r4]
    29cc:	e2866001 	add	r6, r6, #1
    29d0:	e7971100 	ldr	r1, [r7, r0, lsl #2]
    29d4:	e2811001 	add	r1, r1, #1
    29d8:	e7871100 	str	r1, [r7, r0, lsl #2]
    29dc:	e5982020 	ldr	r2, [r8, #32]
    29e0:	e7e70452 	ubfx	r0, r2, #8, #8
    29e4:	e2800001 	add	r0, r0, #1
    29e8:	e1500006 	cmp	r0, r6
    29ec:	8affff9a 	bhi	0x285c
    29f0:	e3560000 	cmp	r6, #0
    29f4:	0a00000d 	beq	0x2a30
    29f8:	e5d40000 	ldrb	r0, [r4]
    29fc:	e1d420b4 	ldrh	r2, [r4, #4]
    2a00:	e1a01006 	mov	r1, r6
    2a04:	e7973100 	ldr	r3, [r7, r0, lsl #2]
    2a08:	e1cd20f0 	strd	r2, [sp]
    2a0c:	e1a02000 	mov	r2, r0
    2a10:	e1d430b2 	ldrh	r3, [r4, #2]
    2a14:	e59f00d8 	ldr	r0, =0x2af4
    2a18:	ebfffe05 	bl	0x2234
    2a1c:	e375000c 	cmn	r5, #12
    2a20:	1a000002 	bne	0x2a30
    2a24:	e28f00cc 	adr	r0, 0x2af8
    2a28:	ebfffe01 	bl	0x2234
    2a2c:	ea00001b 	b	0x2aa0
    2a30:	e355000a 	cmp	r5, #10
    2a34:	03a05000 	moveq	r5, #0
    2a38:	ea000018 	b	0x2aa0
    2a3c:	e3100080 	tst	r0, #128	; 0x80
    2a40:	0a00000e 	beq	0x2a80
    2a44:	e1d400b4 	ldrh	r0, [r4, #4]
    2a48:	ebfffedb 	bl	0x25bc
    2a4c:	eb0004d4 	bl	0x3da4
    2a50:	eb0004db 	bl	0x3dc4
    2a54:	e3a03001 	mov	r3, #1
    2a58:	e28d207c 	add	r2, sp, #124	; 0x7c
    2a5c:	e58d3000 	str	r3, [sp]
    2a60:	e1a0300a 	mov	r3, sl
    2a64:	e5941008 	ldr	r1, [r4, #8]
    2a68:	e28d0014 	add	r0, sp, #20
    2a6c:	eb00049c 	bl	0x3ce4
    2a70:	e1a05000 	mov	r5, r0
    2a74:	eb0004d9 	bl	0x3de0
    2a78:	e375000c 	cmn	r5, #12
    2a7c:	1a000007 	bne	0x2aa0
    2a80:	e3a03001 	mov	r3, #1
    2a84:	e58d3000 	str	r3, [sp]
    2a88:	e1a0300a 	mov	r3, sl
    2a8c:	e5941008 	ldr	r1, [r4, #8]
    2a90:	e28d207c 	add	r2, sp, #124	; 0x7c
    2a94:	e28d0014 	add	r0, sp, #20
    2a98:	eb000491 	bl	0x3ce4
    2a9c:	e1a05000 	mov	r5, r0
    2aa0:	e594000c 	ldr	r0, [r4, #12]
    2aa4:	e3500000 	cmp	r0, #0
    2aa8:	13a02008 	movne	r2, #8
    2aac:	128d107c 	addne	r1, sp, #124	; 0x7c
    2ab0:	1b0007b5 	blne	0x498c
    2ab4:	e5d40000 	ldrb	r0, [r4]
    2ab8:	eb00052d 	bl	0x3f74
    2abc:	e1a0000b 	mov	r0, fp
    2ac0:	eb00052d 	bl	0x3f7c
    2ac4:	eaffff3e 	b	0x27c4

    2ac8:	00005b84

    2acc:	"[Read_single_page] NFC_ReadRetry fail\n",0

    2af4:	00005660

    2af8:	"ecc error!\n",0

    2b04:	e92d401c 	push	{r2, r3, r4, lr}
    2b08:	e3a00000 	mov	r0, #0
    2b0c:	e51f204c 	ldr	r2, =0x2ac8
    2b10:	e1a01000 	mov	r1, r0
    2b14:	e7821100 	str	r1, [r2, r0, lsl #2]
    2b18:	e2800001 	add	r0, r0, #1
    2b1c:	e3500008 	cmp	r0, #8
    2b20:	3afffffb 	bcc	0x2b14
    2b24:	e3a00004 	mov	r0, #4
    2b28:	e5cd1007 	strb	r1, [sp, #7]
    2b2c:	e5cd1000 	strb	r1, [sp]
    2b30:	e5cd0004 	strb	r0, [sp, #4]
    2b34:	e3a00001 	mov	r0, #1
    2b38:	e5cd1002 	strb	r1, [sp, #2]
    2b3c:	e5cd1003 	strb	r1, [sp, #3]
    2b40:	e5cd0005 	strb	r0, [sp, #5]
    2b44:	e5cd0001 	strb	r0, [sp, #1]
    2b48:	e1a0000d 	mov	r0, sp
    2b4c:	e5cd1006 	strb	r1, [sp, #6]
    2b50:	eb00055a 	bl	0x40c0
    2b54:	e1a04000 	mov	r4, r0
    2b58:	e28f0e22 	adr	r0, 0x2d80
    2b5c:	ebfffdb4 	bl	0x2234
    2b60:	eb00049e 	bl	0x3de0
    2b64:	e1a00004 	mov	r0, r4
    2b68:	e8bd801c 	pop	{r2, r3, r4, pc}
    2b6c:	e92d4030 	push	{r4, r5, lr}
    2b70:	e51f43a8 	ldr	r4, =0x27d0
    2b74:	e24dd01c 	sub	sp, sp, #28
    2b78:	e1d411b0 	ldrh	r1, [r4, #16]
    2b7c:	e2011c01 	and	r1, r1, #256	; 0x100
    2b80:	e3510000 	cmp	r1, #0
    2b84:	15941020 	ldrne	r1, [r4, #32]
    2b88:	17e71851 	ubfxne	r1, r1, #16, #8
    2b8c:	13510010 	cmpne	r1, #16
    2b90:	2a000012 	bcs	0x2be0
    2b94:	ebfffde9 	bl	0x2340
    2b98:	e1a05000 	mov	r5, r0
    2b9c:	eb0004e2 	bl	0x3f2c
    2ba0:	e5942020 	ldr	r2, [r4, #32]
    2ba4:	e28d100c 	add	r1, sp, #12
    2ba8:	e1a00005 	mov	r0, r5
    2bac:	eb00070a 	bl	0x47dc
    2bb0:	e5942020 	ldr	r2, [r4, #32]
    2bb4:	e28d100c 	add	r1, sp, #12
    2bb8:	e1a00005 	mov	r0, r5
    2bbc:	eb00071b 	bl	0x4830
    2bc0:	e5dd300f 	ldrb	r3, [sp, #15]
    2bc4:	e1a01005 	mov	r1, r5
    2bc8:	e5dd200e 	ldrb	r2, [sp, #14]
    2bcc:	e59f01c4 	ldr	r0, =0x2d98
    2bd0:	e1cd20f0 	strd	r2, [sp]
    2bd4:	e5dd300d 	ldrb	r3, [sp, #13]
    2bd8:	e5dd200c 	ldrb	r2, [sp, #12]
    2bdc:	ebfffd94 	bl	0x2234
    2be0:	e28dd01c 	add	sp, sp, #28
    2be4:	e3a00000 	mov	r0, #0
    2be8:	e8bd8030 	pop	{r4, r5, pc}
    2bec:	e92d4030 	push	{r4, r5, lr}
    2bf0:	e51f4428 	ldr	r4, =0x27d0
    2bf4:	e24dd02c 	sub	sp, sp, #44	; 0x2c
    2bf8:	e1d411b0 	ldrh	r1, [r4, #16]
    2bfc:	e2011c01 	and	r1, r1, #256	; 0x100
    2c00:	e3510000 	cmp	r1, #0
    2c04:	15941020 	ldrne	r1, [r4, #32]
    2c08:	17e71851 	ubfxne	r1, r1, #16, #8
    2c0c:	13510010 	cmpne	r1, #16
    2c10:	2a00001d 	bcs	0x2c8c
    2c14:	ebfffdc9 	bl	0x2340
    2c18:	e1a05000 	mov	r5, r0
    2c1c:	eb0004c2 	bl	0x3f2c
    2c20:	e5942020 	ldr	r2, [r4, #32]
    2c24:	e28d101c 	add	r1, sp, #28
    2c28:	e1a00005 	mov	r0, r5
    2c2c:	eb0006ff 	bl	0x4830
    2c30:	e5941020 	ldr	r1, [r4, #32]
    2c34:	e28f0e16 	adr	r0, 0x2d9c
    2c38:	ebfffd7d 	bl	0x2234
    2c3c:	e5dd301f 	ldrb	r3, [sp, #31]
    2c40:	e1a01005 	mov	r1, r5
    2c44:	e5dd201e 	ldrb	r2, [sp, #30]
    2c48:	e59f0180 	ldr	r0, =0x2dd0
    2c4c:	e1cd20f0 	strd	r2, [sp]
    2c50:	e5dd301d 	ldrb	r3, [sp, #29]
    2c54:	e5dd201c 	ldrb	r2, [sp, #28]
    2c58:	ebfffd75 	bl	0x2234
    2c5c:	e5942020 	ldr	r2, [r4, #32]
    2c60:	e28d100c 	add	r1, sp, #12
    2c64:	e1a00005 	mov	r0, r5
    2c68:	eb0006db 	bl	0x47dc
    2c6c:	e5dd300f 	ldrb	r3, [sp, #15]
    2c70:	e1a01005 	mov	r1, r5
    2c74:	e5dd200e 	ldrb	r2, [sp, #14]
    2c78:	e59f0154 	ldr	r0, =0x2dd4
    2c7c:	e1cd20f0 	strd	r2, [sp]
    2c80:	e5dd300d 	ldrb	r3, [sp, #13]
    2c84:	e5dd200c 	ldrb	r2, [sp, #12]
    2c88:	ebfffd69 	bl	0x2234
    2c8c:	e28dd02c 	add	sp, sp, #44	; 0x2c
    2c90:	e3a00000 	mov	r0, #0
    2c94:	e8bd8030 	pop	{r4, r5, pc}
    2c98:	e92d407c 	push	{r2, r3, r4, r5, r6, lr}
    2c9c:	e1a06000 	mov	r6, r0
    2ca0:	e51f44d8 	ldr	r4, =0x27d0
    2ca4:	e5d40012 	ldrb	r0, [r4, #18]
    2ca8:	ebfffd22 	bl	0x2138
    2cac:	e3700001 	cmn	r0, #1
    2cb0:	0a000021 	beq	0x2d3c
    2cb4:	e2845038 	add	r5, r4, #56	; 0x38
    2cb8:	e5950000 	ldr	r0, [r5]
    2cbc:	e3500000 	cmp	r0, #0
    2cc0:	1a000007 	bne	0x2ce4
    2cc4:	e5d4000a 	ldrb	r0, [r4, #10]
    2cc8:	e5d41009 	ldrb	r1, [r4, #9]
    2ccc:	e1600180 	smulbb	r0, r0, r1
    2cd0:	e1a00480 	lsl	r0, r0, #9
    2cd4:	ebfffd4f 	bl	0x2218
    2cd8:	e3500000 	cmp	r0, #0
    2cdc:	e5850000 	str	r0, [r5]
    2ce0:	0a000015 	beq	0x2d3c
    2ce4:	e595000c 	ldr	r0, [r5, #12]
    2ce8:	e3500000 	cmp	r0, #0
    2cec:	1a000007 	bne	0x2d10
    2cf0:	e5d4000a 	ldrb	r0, [r4, #10]
    2cf4:	e5d41009 	ldrb	r1, [r4, #9]
    2cf8:	e1600180 	smulbb	r0, r0, r1
    2cfc:	e1a00100 	lsl	r0, r0, #2
    2d00:	ebfffd44 	bl	0x2218
    2d04:	e3500000 	cmp	r0, #0
    2d08:	e585000c 	str	r0, [r5, #12]
    2d0c:	0a00000a 	beq	0x2d3c
    2d10:	e5950010 	ldr	r0, [r5, #16]
    2d14:	e3500000 	cmp	r0, #0
    2d18:	1a000009 	bne	0x2d44
    2d1c:	e5d4000a 	ldrb	r0, [r4, #10]
    2d20:	e5d41009 	ldrb	r1, [r4, #9]
    2d24:	e1600180 	smulbb	r0, r0, r1
    2d28:	e1a00480 	lsl	r0, r0, #9
    2d2c:	ebfffd39 	bl	0x2218
    2d30:	e3500000 	cmp	r0, #0
    2d34:	e5850010 	str	r0, [r5, #16]
    2d38:	1a000001 	bne	0x2d44
    2d3c:	e3e00000 	mvn	r0, #0
    2d40:	e8bd807c 	pop	{r2, r3, r4, r5, r6, pc}
    2d44:	e5d40013 	ldrb	r0, [r4, #19]
    2d48:	eb0004d2 	bl	0x4098
    2d4c:	e3a00000 	mov	r0, #0
    2d50:	e5cd0000 	strb	r0, [sp]
    2d54:	e5cd0002 	strb	r0, [sp, #2]
    2d58:	e5cd0003 	strb	r0, [sp, #3]
    2d5c:	e5cd0007 	strb	r0, [sp, #7]
    2d60:	e5d4000a 	ldrb	r0, [r4, #10]
    2d64:	e5cd0004 	strb	r0, [sp, #4]
    2d68:	e5cd6005 	strb	r6, [sp, #5]
    2d6c:	e5940024 	ldr	r0, [r4, #36]	; 0x24
    2d70:	e5cd0006 	strb	r0, [sp, #6]
    2d74:	e1a0000d 	mov	r0, sp
    2d78:	eb00048a 	bl	0x3fa8
    2d7c:	e8bd807c 	pop	{r2, r3, r4, r5, r6, pc}

    2d80:	"NFC Randomizer start. \n",0
    2d98:	000056c4
    2d9c:	"PHY_SetDefaultParam: Read Retry Type is : 0x%x\n",0
    2dd0:	0000571c
    2dd4:	00005774

    2dd8:	e92d41f0 	push	{r4, r5, r6, r7, r8, lr}
    2ddc:	e3a04000 	mov	r4, #0
    2de0:	e59f64b0 	ldr	r6, =0x3298
    2de4:	e1a07004 	mov	r7, r4
    2de8:	e2465038 	sub	r5, r6, #56	; 0x38
    2dec:	e5960000 	ldr	r0, [r6]
    2df0:	e3500000 	cmp	r0, #0
    2df4:	0a000005 	beq	0x2e10
    2df8:	e5d5100a 	ldrb	r1, [r5, #10]
    2dfc:	e5d52009 	ldrb	r2, [r5, #9]
    2e00:	e1610281 	smulbb	r1, r1, r2
    2e04:	e1a01481 	lsl	r1, r1, #9
    2e08:	ebfffd05 	bl	0x2224
    2e0c:	e5867000 	str	r7, [r6]
    2e10:	e596000c 	ldr	r0, [r6, #12]
    2e14:	e3500000 	cmp	r0, #0
    2e18:	0a000005 	beq	0x2e34
    2e1c:	e5d5100a 	ldrb	r1, [r5, #10]
    2e20:	e5d52009 	ldrb	r2, [r5, #9]
    2e24:	e1610281 	smulbb	r1, r1, r2
    2e28:	e1a01101 	lsl	r1, r1, #2
    2e2c:	ebfffcfc 	bl	0x2224
    2e30:	e586700c 	str	r7, [r6, #12]
    2e34:	e5960010 	ldr	r0, [r6, #16]
    2e38:	e3500000 	cmp	r0, #0
    2e3c:	0a000005 	beq	0x2e58
    2e40:	e5d5100a 	ldrb	r1, [r5, #10]
    2e44:	e5d52009 	ldrb	r2, [r5, #9]
    2e48:	e1610281 	smulbb	r1, r1, r2
    2e4c:	e1a01481 	lsl	r1, r1, #9
    2e50:	ebfffcf3 	bl	0x2224
    2e54:	e5867010 	str	r7, [r6, #16]
    2e58:	e1d501b0 	ldrh	r0, [r5, #16]
    2e5c:	e3100c01 	tst	r0, #256	; 0x100
    2e60:	0a000008 	beq	0x2e88
    2e64:	ea000002 	b	0x2e74
    2e68:	e1a00004 	mov	r0, r4
    2e6c:	ebffff5e 	bl	0x2bec
    2e70:	e2844001 	add	r4, r4, #1
    2e74:	e5d50000 	ldrb	r0, [r5]
    2e78:	e1500004 	cmp	r0, r4
    2e7c:	8afffff9 	bhi	0x2e68
    2e80:	e5950020 	ldr	r0, [r5, #32]
    2e84:	eb000691 	bl	0x48d0
    2e88:	eb0003d4 	bl	0x3de0
    2e8c:	eb0004a5 	bl	0x4128
    2e90:	e3a00000 	mov	r0, #0
    2e94:	e8bd81f0 	pop	{r4, r5, r6, r7, r8, pc}
    2e98:	e92d4030 	push	{r4, r5, lr}
    2e9c:	e1a05000 	mov	r5, r0
    2ea0:	e24dd02c 	sub	sp, sp, #44	; 0x2c
    2ea4:	e3a00000 	mov	r0, #0
    2ea8:	e1a04001 	mov	r4, r1
    2eac:	e58d0014 	str	r0, [sp, #20]
    2eb0:	e1a00005 	mov	r0, r5
    2eb4:	eb00041c 	bl	0x3f2c
    2eb8:	e3a03000 	mov	r3, #0
    2ebc:	e3a00001 	mov	r0, #1
    2ec0:	e88d0009 	stm	sp, {r0, r3}
    2ec4:	e3a02006 	mov	r2, #6
    2ec8:	e58d2008 	str	r2, [sp, #8]
    2ecc:	e1a02000 	mov	r2, r0
    2ed0:	e58d300c 	str	r3, [sp, #12]
    2ed4:	e28d3014 	add	r3, sp, #20
    2ed8:	e3a01090 	mov	r1, #144	; 0x90
    2edc:	e28d0018 	add	r0, sp, #24
    2ee0:	ebfffcdb 	bl	0x2254
    2ee4:	e1a01004 	mov	r1, r4
    2ee8:	e28d0018 	add	r0, sp, #24
    2eec:	eb0003c2 	bl	0x3dfc
    2ef0:	e1a04000 	mov	r4, r0
    2ef4:	e1a00005 	mov	r0, r5
    2ef8:	eb00041d 	bl	0x3f74
    2efc:	e28dd02c 	add	sp, sp, #44	; 0x2c
    2f00:	e1a00004 	mov	r0, r4
    2f04:	e8bd8030 	pop	{r4, r5, pc}
    2f08:	e92d43f0 	push	{r4, r5, r6, r7, r8, r9, lr}
    2f0c:	e1a09001 	mov	r9, r1
    2f10:	e24dd02c 	sub	sp, sp, #44	; 0x2c
    2f14:	e3a01000 	mov	r1, #0
    2f18:	e58d1014 	str	r1, [sp, #20]
    2f1c:	ebfffd07 	bl	0x2340
    2f20:	e1a07000 	mov	r7, r0
    2f24:	eb000400 	bl	0x3f2c
    2f28:	e1a00007 	mov	r0, r7
    2f2c:	ebfffd57 	bl	0x2490
    2f30:	eb000406 	bl	0x3f50
    2f34:	e3a05000 	mov	r5, #0
    2f38:	e3a02020 	mov	r2, #32
    2f3c:	e3a08000 	mov	r8, #0
    2f40:	e3a03001 	mov	r3, #1
    2f44:	e1a00285 	lsl	r0, r5, #5
    2f48:	e58d2008 	str	r2, [sp, #8]
    2f4c:	e58d0014 	str	r0, [sp, #20]
    2f50:	e1a04009 	mov	r4, r9
    2f54:	e88d0108 	stm	sp, {r3, r8}
    2f58:	e3a02001 	mov	r2, #1
    2f5c:	e58d300c 	str	r3, [sp, #12]
    2f60:	e28d3014 	add	r3, sp, #20
    2f64:	e3a010ed 	mov	r1, #237	; 0xed
    2f68:	e28d0018 	add	r0, sp, #24
    2f6c:	ebfffcb8 	bl	0x2254
    2f70:	e1a01009 	mov	r1, r9
    2f74:	e28d0018 	add	r0, sp, #24
    2f78:	eb0003b8 	bl	0x3e60
    2f7c:	e1a06000 	mov	r6, r0
    2f80:	e3a01000 	mov	r1, #0
    2f84:	e0842001 	add	r2, r4, r1
    2f88:	e7d40001 	ldrb	r0, [r4, r1]
    2f8c:	e5d22010 	ldrb	r2, [r2, #16]
    2f90:	e0200002 	eor	r0, r0, r2
    2f94:	e35000ff 	cmp	r0, #255	; 0xff
    2f98:	13e06000 	mvnne	r6, #0
    2f9c:	1a000005 	bne	0x2fb8
    2fa0:	e2811001 	add	r1, r1, #1
    2fa4:	e3510010 	cmp	r1, #16
    2fa8:	3afffff5 	bcc	0x2f84
    2fac:	e3580000 	cmp	r8, #0
    2fb0:	03a06000 	moveq	r6, #0
    2fb4:	0a00000a 	beq	0x2fe4
    2fb8:	e2855001 	add	r5, r5, #1
    2fbc:	e3550010 	cmp	r5, #16
    2fc0:	3affffdc 	bcc	0x2f38
    2fc4:	e3560000 	cmp	r6, #0
    2fc8:	0a000005 	beq	0x2fe4
    2fcc:	e3a01000 	mov	r1, #0
    2fd0:	e3a00055 	mov	r0, #85	; 0x55
    2fd4:	e7c40001 	strb	r0, [r4, r1]
    2fd8:	e2811001 	add	r1, r1, #1
    2fdc:	e3510020 	cmp	r1, #32
    2fe0:	3afffffb 	bcc	0x2fd4
    2fe4:	e1a01007 	mov	r1, r7
    2fe8:	e28f0fab 	adr	r0, 0x329c
    2fec:	ebfffc90 	bl	0x2234
    2ff0:	e5d43003 	ldrb	r3, [r4, #3]
    2ff4:	e28f0fb1 	adr	r0, 0x32c0
    2ff8:	e58d3000 	str	r3, [sp]
    2ffc:	e5d43002 	ldrb	r3, [r4, #2]
    3000:	e5d42001 	ldrb	r2, [r4, #1]
    3004:	e5d41000 	ldrb	r1, [r4]
    3008:	ebfffc89 	bl	0x2234
    300c:	e5d43007 	ldrb	r3, [r4, #7]
    3010:	e28f0faa 	adr	r0, 0x32c0
    3014:	e58d3000 	str	r3, [sp]
    3018:	e5d43006 	ldrb	r3, [r4, #6]
    301c:	e5d42005 	ldrb	r2, [r4, #5]
    3020:	e5d41004 	ldrb	r1, [r4, #4]
    3024:	ebfffc82 	bl	0x2234
    3028:	e5d4300b 	ldrb	r3, [r4, #11]
    302c:	e28f0fa3 	adr	r0, 0x32c0
    3030:	e58d3000 	str	r3, [sp]
    3034:	e5d4300a 	ldrb	r3, [r4, #10]
    3038:	e5d42009 	ldrb	r2, [r4, #9]
    303c:	e5d41008 	ldrb	r1, [r4, #8]
    3040:	ebfffc7b 	bl	0x2234
    3044:	e5d4300f 	ldrb	r3, [r4, #15]
    3048:	e28f0e27 	adr	r0, 0x32c0
    304c:	e58d3000 	str	r3, [sp]
    3050:	e5d4300e 	ldrb	r3, [r4, #14]
    3054:	e5d4200d 	ldrb	r2, [r4, #13]
    3058:	e5d4100c 	ldrb	r1, [r4, #12]
    305c:	ebfffc74 	bl	0x2234
    3060:	e28f0f9a 	adr	r0, 0x32d0
    3064:	ebfffc72 	bl	0x2234
    3068:	e5d43013 	ldrb	r3, [r4, #19]
    306c:	e28f0f93 	adr	r0, 0x32c0
    3070:	e58d3000 	str	r3, [sp]
    3074:	e5d43012 	ldrb	r3, [r4, #18]
    3078:	e5d42011 	ldrb	r2, [r4, #17]
    307c:	e5d41010 	ldrb	r1, [r4, #16]
    3080:	ebfffc6b 	bl	0x2234
    3084:	e5d43017 	ldrb	r3, [r4, #23]
    3088:	e28f0e23 	adr	r0, 0x32c0
    308c:	e58d3000 	str	r3, [sp]
    3090:	e5d43016 	ldrb	r3, [r4, #22]
    3094:	e5d42015 	ldrb	r2, [r4, #21]
    3098:	e5d41014 	ldrb	r1, [r4, #20]
    309c:	ebfffc64 	bl	0x2234
    30a0:	e5d4301b 	ldrb	r3, [r4, #27]
    30a4:	e28f0f85 	adr	r0, 0x32c0
    30a8:	e58d3000 	str	r3, [sp]
    30ac:	e5d4301a 	ldrb	r3, [r4, #26]
    30b0:	e5d42019 	ldrb	r2, [r4, #25]
    30b4:	e5d41018 	ldrb	r1, [r4, #24]
    30b8:	ebfffc5d 	bl	0x2234
    30bc:	e5d4301f 	ldrb	r3, [r4, #31]
    30c0:	e28f0f7e 	adr	r0, 0x32c0
    30c4:	e58d3000 	str	r3, [sp]
    30c8:	e5d4301e 	ldrb	r3, [r4, #30]
    30cc:	e5d4201d 	ldrb	r2, [r4, #29]
    30d0:	e5d4101c 	ldrb	r1, [r4, #28]
    30d4:	ebfffc56 	bl	0x2234
    30d8:	e28f0e1f 	adr	r0, 0x32d0
    30dc:	ebfffc54 	bl	0x2234
    30e0:	e1a00007 	mov	r0, r7
    30e4:	eb0003a2 	bl	0x3f74
    30e8:	e28dd02c 	add	sp, sp, #44	; 0x2c
    30ec:	e1a00006 	mov	r0, r6
    30f0:	e8bd83f0 	pop	{r4, r5, r6, r7, r8, r9, pc}
    30f4:	e92d4070 	push	{r4, r5, r6, lr}
    30f8:	e1a06000 	mov	r6, r0
    30fc:	ebfffce3 	bl	0x2490
    3100:	e1a05000 	mov	r5, r0
    3104:	e1a00006 	mov	r0, r6
    3108:	eb000387 	bl	0x3f2c
    310c:	e1a00005 	mov	r0, r5
    3110:	eb00038e 	bl	0x3f50
    3114:	e1a01006 	mov	r1, r6
    3118:	e3a00070 	mov	r0, #112	; 0x70
    311c:	ebfffcf5 	bl	0x24f8
    3120:	e1a04000 	mov	r4, r0
    3124:	e1a00006 	mov	r0, r6
    3128:	eb000391 	bl	0x3f74
    312c:	e1a00005 	mov	r0, r5
    3130:	eb000391 	bl	0x3f7c
    3134:	e3540000 	cmp	r4, #0
    3138:	b1a00004 	movlt	r0, r4
    313c:	b8bd8070 	poplt	{r4, r5, r6, pc}
    3140:	e2140080 	ands	r0, r4, #128	; 0x80
    3144:	13a00001 	movne	r0, #1
    3148:	e8bd8070 	pop	{r4, r5, r6, pc}
    314c:	e12fff1e 	bx	lr
    3150:	e12fff1e 	bx	lr
    3154:	e3a01000 	mov	r1, #0
    3158:	eafffd48 	b	0x2680
    315c:	e92d4ff8 	push	{r3, r4, r5, r6, r7, r8, r9, sl, fp, lr}
    3160:	e1a0b000 	mov	fp, r0
    3164:	e1a04001 	mov	r4, r1
    3168:	e30f5fff 	movw	r5, #65535	; 0xffff
    316c:	e3a07000 	mov	r7, #0
    3170:	ebfffc72 	bl	0x2340
    3174:	e1a0a000 	mov	sl, r0
    3178:	ebfffcc4 	bl	0x2490
    317c:	e35a00ff 	cmp	sl, #255	; 0xff
    3180:	e1a09000 	mov	r9, r0
    3184:	1a000003 	bne	0x3198
    3188:	e28f0f51 	adr	r0, 0x32d4
    318c:	ebfffc28 	bl	0x2234
    3190:	e3e00014 	mvn	r0, #20
    3194:	e8bd8ff8 	pop	{r3, r4, r5, r6, r7, r8, r9, sl, fp, pc}
    3198:	e51f89d0 	ldr	r8, =0x27d0
    319c:	e3540001 	cmp	r4, #1
    31a0:	1a000009 	bne	0x31cc
    31a4:	e1d801b0 	ldrh	r0, [r8, #16]
    31a8:	e3100020 	tst	r0, #32
    31ac:	0a000006 	beq	0x31cc
    31b0:	e5d81007 	ldrb	r1, [r8, #7]
    31b4:	e1a0000b 	mov	r0, fp
    31b8:	eb000695 	bl	0x4c14
    31bc:	e3510000 	cmp	r1, #0
    31c0:	15d86034 	ldrbne	r6, [r8, #52]	; 0x34
    31c4:	05d86033 	ldrbeq	r6, [r8, #51]	; 0x33
    31c8:	ea000003 	b	0x31dc
    31cc:	e1d801b0 	ldrh	r0, [r8, #16]
    31d0:	e3100008 	tst	r0, #8
    31d4:	15d86032 	ldrbne	r6, [r8, #50]	; 0x32
    31d8:	03a06070 	moveq	r6, #112	; 0x70
    31dc:	e1a0000a 	mov	r0, sl
    31e0:	eb000351 	bl	0x3f2c
    31e4:	e1a00009 	mov	r0, r9
    31e8:	eb000358 	bl	0x3f50
    31ec:	e5d81007 	ldrb	r1, [r8, #7]
    31f0:	e1a0000b 	mov	r0, fp
    31f4:	eb000686 	bl	0x4c14
    31f8:	e1a00006 	mov	r0, r6
    31fc:	ebfffcbd 	bl	0x24f8
    3200:	e2504000 	subs	r4, r0, #0
    3204:	aa000007 	bge	0x3228
    3208:	e58d4000 	str	r4, [sp]
    320c:	e59f00e4 	ldr	r0, =0x32f8
    3210:	e1a03006 	mov	r3, r6
    3214:	e1a0200b 	mov	r2, fp
    3218:	e1a0100a 	mov	r1, sl
    321c:	ebfffc04 	bl	0x2234
    3220:	e1a00004 	mov	r0, r4
    3224:	e8bd8ff8 	pop	{r3, r4, r5, r6, r7, r8, r9, sl, fp, pc}
    3228:	e3140040 	tst	r4, #64	; 0x40
    322c:	1a00000a 	bne	0x325c
    3230:	e2550000 	subs	r0, r5, #0
    3234:	e2455001 	sub	r5, r5, #1
    3238:	aaffffeb 	bge	0x31ec
    323c:	e59f00b8 	ldr	r0, =0x32fc
    3240:	e1a03006 	mov	r3, r6
    3244:	e58d4000 	str	r4, [sp]
    3248:	e1a0200b 	mov	r2, fp
    324c:	e1a0100a 	mov	r1, sl
    3250:	ebfffbf7 	bl	0x2234
    3254:	e3e0000d 	mvn	r0, #13
    3258:	e8bd8ff8 	pop	{r3, r4, r5, r6, r7, r8, r9, sl, fp, pc}
    325c:	e3140001 	tst	r4, #1
    3260:	0a000006 	beq	0x3280
    3264:	e58d4000 	str	r4, [sp]
    3268:	e59f0090 	ldr	r0, =0x3300
    326c:	e1a03006 	mov	r3, r6
    3270:	e1a0200b 	mov	r2, fp
    3274:	e1a0100a 	mov	r1, sl
    3278:	ebfffbed 	bl	0x2234
    327c:	e3e07000 	mvn	r7, #0
    3280:	e1a0000a 	mov	r0, sl
    3284:	eb00033a 	bl	0x3f74
    3288:	e1a00009 	mov	r0, r9
    328c:	eb00033a 	bl	0x3f7c
    3290:	e1a00007 	mov	r0, r7
    3294:	e8bd8ff8 	pop	{r3, r4, r5, r6, r7, r8, r9, sl, fp, pc}

    3298:	00005b70

    329c:	"Nand Unique ID of chip %u is : \n",0
    32c0:	"%x, %x, %x, %x\n",0
    32d0:	0000000a
    32d4:	"PHY_SynchBank : beyond chip count\n",0

    32f8:	000057d4
    32fc:	0000582c
    3300:	00005888

    3304:	e59f12e4 	ldr	r1, =0x35f0
    3308:	e5d02000 	ldrb	r2, [r0]
    330c:	e5c12000 	strb	r2, [r1]
    3310:	e1d020b2 	ldrh	r2, [r0, #2]
    3314:	e1c120b2 	strh	r2, [r1, #2]
    3318:	e5d02004 	ldrb	r2, [r0, #4]
    331c:	e5c12004 	strb	r2, [r1, #4]
    3320:	e5d02005 	ldrb	r2, [r0, #5]
    3324:	e5c12005 	strb	r2, [r1, #5]
    3328:	e5d02006 	ldrb	r2, [r0, #6]
    332c:	e5c12006 	strb	r2, [r1, #6]
    3330:	e5d02007 	ldrb	r2, [r0, #7]
    3334:	e5c12007 	strb	r2, [r1, #7]
    3338:	e5d02008 	ldrb	r2, [r0, #8]
    333c:	e5c12008 	strb	r2, [r1, #8]
    3340:	e5d02009 	ldrb	r2, [r0, #9]
    3344:	e5c12009 	strb	r2, [r1, #9]
    3348:	e5d0200a 	ldrb	r2, [r0, #10]
    334c:	e5c1200a 	strb	r2, [r1, #10]
    3350:	e1d020bc 	ldrh	r2, [r0, #12]
    3354:	e1c120bc 	strh	r2, [r1, #12]
    3358:	e1d020be 	ldrh	r2, [r0, #14]
    335c:	e1c120be 	strh	r2, [r1, #14]
    3360:	e1d021b0 	ldrh	r2, [r0, #16]
    3364:	e1c121b0 	strh	r2, [r1, #16]
    3368:	e5d02012 	ldrb	r2, [r0, #18]
    336c:	e5c12012 	strb	r2, [r1, #18]
    3370:	e5d02013 	ldrb	r2, [r0, #19]
    3374:	e5c12013 	strb	r2, [r1, #19]
    3378:	e1d021bc 	ldrh	r2, [r0, #28]
    337c:	e1c121bc 	strh	r2, [r1, #28]
    3380:	e5d02014 	ldrb	r2, [r0, #20]
    3384:	e5c12014 	strb	r2, [r1, #20]
    3388:	e5d02015 	ldrb	r2, [r0, #21]
    338c:	e5c12015 	strb	r2, [r1, #21]
    3390:	e5d02016 	ldrb	r2, [r0, #22]
    3394:	e5c12016 	strb	r2, [r1, #22]
    3398:	e5d02017 	ldrb	r2, [r0, #23]
    339c:	e5c12017 	strb	r2, [r1, #23]
    33a0:	e5d02018 	ldrb	r2, [r0, #24]
    33a4:	e5c12018 	strb	r2, [r1, #24]
    33a8:	e5d02019 	ldrb	r2, [r0, #25]
    33ac:	e5c12019 	strb	r2, [r1, #25]
    33b0:	e5d0201a 	ldrb	r2, [r0, #26]
    33b4:	e5c1201a 	strb	r2, [r1, #26]
    33b8:	e5d0201b 	ldrb	r2, [r0, #27]
    33bc:	e5c1201b 	strb	r2, [r1, #27]
    33c0:	e5902024 	ldr	r2, [r0, #36]	; 0x24
    33c4:	e5812020 	str	r2, [r1, #32]
    33c8:	e5900028 	ldr	r0, [r0, #40]	; 0x28
    33cc:	e5810024 	str	r0, [r1, #36]	; 0x24
    33d0:	e12fff1e 	bx	lr
    33d4:	e59f3214 	ldr	r3, =0x35f0
    33d8:	e3a01001 	mov	r1, #1
    33dc:	e92d4010 	push	{r4, lr}
    33e0:	e0832001 	add	r2, r3, r1
    33e4:	e7d04001 	ldrb	r4, [r0, r1]
    33e8:	e5d22014 	ldrb	r2, [r2, #20]
    33ec:	e1540002 	cmp	r4, r2
    33f0:	135200ff 	cmpne	r2, #255	; 0xff
    33f4:	1a000002 	bne	0x3404
    33f8:	e2811001 	add	r1, r1, #1
    33fc:	e3510006 	cmp	r1, #6
    3400:	bafffff6 	blt	0x33e0
    3404:	e3510006 	cmp	r1, #6
    3408:	13e00000 	mvnne	r0, #0
    340c:	03a00000 	moveq	r0, #0
    3410:	e8bd8010 	pop	{r4, pc}
    3414:	e92d40f0 	push	{r4, r5, r6, r7, lr}
    3418:	e3a05001 	mov	r5, #1
    341c:	e59f41cc 	ldr	r4, =0x35f0
    3420:	e24dd0cc 	sub	sp, sp, #204	; 0xcc
    3424:	e3a00004 	mov	r0, #4
    3428:	e3a06000 	mov	r6, #0
    342c:	e3a010aa 	mov	r1, #170	; 0xaa
    3430:	e5c45000 	strb	r5, [r4]
    3434:	e1c450b2 	strh	r5, [r4, #2]
    3438:	e5c45006 	strb	r5, [r4, #6]
    343c:	e5c45004 	strb	r5, [r4, #4]
    3440:	e5c45005 	strb	r5, [r4, #5]
    3444:	e5c45007 	strb	r5, [r4, #7]
    3448:	e5c45008 	strb	r5, [r4, #8]
    344c:	e5c45009 	strb	r5, [r4, #9]
    3450:	e5c4000a 	strb	r0, [r4, #10]
    3454:	e3a00040 	mov	r0, #64	; 0x40
    3458:	e1c400bc 	strh	r0, [r4, #12]
    345c:	e3a00b01 	mov	r0, #1024	; 0x400
    3460:	e1c400be 	strh	r0, [r4, #14]
    3464:	e3a0000a 	mov	r0, #10
    3468:	e1c461b0 	strh	r6, [r4, #16]
    346c:	e5c40012 	strb	r0, [r4, #18]
    3470:	e3a00055 	mov	r0, #85	; 0x55
    3474:	e5c46013 	strb	r6, [r4, #19]
    3478:	e5c40014 	strb	r0, [r4, #20]
    347c:	e5c41015 	strb	r1, [r4, #21]
    3480:	e5c40016 	strb	r0, [r4, #22]
    3484:	e5c41017 	strb	r1, [r4, #23]
    3488:	e5c40018 	strb	r0, [r4, #24]
    348c:	e5c41019 	strb	r1, [r4, #25]
    3490:	e5c4001a 	strb	r0, [r4, #26]
    3494:	e1a00006 	mov	r0, r6
    3498:	e5c4101b 	strb	r1, [r4, #27]
    349c:	e5846020 	str	r6, [r4, #32]
    34a0:	ebfffc4a 	bl	0x25d0
    34a4:	e1a07000 	mov	r7, r0
    34a8:	e3a01000 	mov	r1, #0
    34ac:	e1a00001 	mov	r0, r1
    34b0:	ebffff29 	bl	0x315c
    34b4:	e1900007 	orrs	r0, r0, r7
    34b8:	128f0f4d 	addne	r0, pc, #308	; 0x134
    34bc:	1a000026 	bne	0x355c
    34c0:	e28d10c4 	add	r1, sp, #196	; 0xc4
    34c4:	e3a00000 	mov	r0, #0
    34c8:	ebfffe72 	bl	0x2e98
    34cc:	e3500000 	cmp	r0, #0
    34d0:	128f0f53 	addne	r0, pc, #332	; 0x14c
    34d4:	1a000020 	bne	0x355c
    34d8:	e5dd30c9 	ldrb	r3, [sp, #201]	; 0xc9
    34dc:	e28f0e17 	adr	r0, 0x3654
    34e0:	e5dd20c8 	ldrb	r2, [sp, #200]	; 0xc8
    34e4:	e5dd10c7 	ldrb	r1, [sp, #199]	; 0xc7
    34e8:	e88d000e 	stm	sp, {r1, r2, r3}
    34ec:	e5dd30c6 	ldrb	r3, [sp, #198]	; 0xc6
    34f0:	e5dd20c5 	ldrb	r2, [sp, #197]	; 0xc5
    34f4:	e5dd10c4 	ldrb	r1, [sp, #196]	; 0xc4
    34f8:	ebfffb4d 	bl	0x2234
    34fc:	e28d0018 	add	r0, sp, #24
    3500:	ebfff9fc 	bl	0x1cf8
    3504:	e3500000 	cmp	r0, #0
    3508:	128f0f61 	addne	r0, pc, #388	; 0x184
    350c:	1a000012 	bne	0x355c
    3510:	e5dd3033 	ldrb	r3, [sp, #51]	; 0x33
    3514:	e5dd2032 	ldrb	r2, [sp, #50]	; 0x32
    3518:	e5dd1031 	ldrb	r1, [sp, #49]	; 0x31
    351c:	e5dd0030 	ldrb	r0, [sp, #48]	; 0x30
    3520:	e98d000f 	stmib	sp, {r0, r1, r2, r3}
    3524:	e5dd302f 	ldrb	r3, [sp, #47]	; 0x2f
    3528:	e5dd202d 	ldrb	r2, [sp, #45]	; 0x2d
    352c:	e58d3000 	str	r3, [sp]
    3530:	e5dd302e 	ldrb	r3, [sp, #46]	; 0x2e
    3534:	e5dd102c 	ldrb	r1, [sp, #44]	; 0x2c
    3538:	e59f0184 	ldr	r0, =0x36c4
    353c:	ebfffb3c 	bl	0x2234
    3540:	e28d0018 	add	r0, sp, #24
    3544:	ebffff6e 	bl	0x3304
    3548:	e28d00c4 	add	r0, sp, #196	; 0xc4
    354c:	ebffffa0 	bl	0x33d4
    3550:	e3500000 	cmp	r0, #0
    3554:	0a000004 	beq	0x356c
    3558:	e28f0f5a 	adr	r0, 0x36c8
    355c:	ebfffb34 	bl	0x2234
    3560:	e3e00000 	mvn	r0, #0
    3564:	e28dd0cc 	add	sp, sp, #204	; 0xcc
    3568:	e8bd80f0 	pop	{r4, r5, r6, r7, pc}
    356c:	e1d401b0 	ldrh	r0, [r4, #16]
    3570:	e3c00020 	bic	r0, r0, #32
    3574:	e1c401b0 	strh	r0, [r4, #16]
    3578:	e6ff0070 	uxth	r0, r0
    357c:	e3100008 	tst	r0, #8
    3580:	05c45009 	strbeq	r5, [r4, #9]
    3584:	e3100020 	tst	r0, #32
    3588:	05c45007 	strbeq	r5, [r4, #7]
    358c:	e5d41000 	ldrb	r1, [r4]
    3590:	e3510001 	cmp	r1, #1
    3594:	83800040 	orrhi	r0, r0, #64	; 0x40
    3598:	81c401b0 	strhhi	r0, [r4, #16]
    359c:	e5cd6010 	strb	r6, [sp, #16]
    35a0:	e5cd6012 	strb	r6, [sp, #18]
    35a4:	e5cd6013 	strb	r6, [sp, #19]
    35a8:	e5cd6017 	strb	r6, [sp, #23]
    35ac:	e5d4000a 	ldrb	r0, [r4, #10]
    35b0:	e5cd5011 	strb	r5, [sp, #17]
    35b4:	e5cd0014 	strb	r0, [sp, #20]
    35b8:	e5cd5015 	strb	r5, [sp, #21]
    35bc:	e5940024 	ldr	r0, [r4, #36]	; 0x24
    35c0:	e5cd0016 	strb	r0, [sp, #22]
    35c4:	e28d0010 	add	r0, sp, #16
    35c8:	eb000276 	bl	0x3fa8
    35cc:	e1d401b0 	ldrh	r0, [r4, #16]
    35d0:	e3100c01 	tst	r0, #256	; 0x100
    35d4:	0a000050 	beq	0x371c
    35d8:	e28f0f43 	adr	r0, 0x36ec
    35dc:	ebfffb14 	bl	0x2234
    35e0:	e5940020 	ldr	r0, [r4, #32]
    35e4:	eb0003d3 	bl	0x4538
    35e8:	e3a05000 	mov	r5, #0
    35ec:	ea000047 	b	0x3710

    35f0:	00005b38

    35f4:	"[SCAN_ERR] Reset boot nand flash chip failed!\n",0
    3624:	"[SCAN_ERR] Read chip ID from boot chip failed!\n",0
    3654:	"[SCAN_DBG] Nand flash chip id is:0x%x 0x%x 0x%x 0x%x 0x%x 0x%x\n",0
    3694:	"[SCAN_DBG] get nand info from boot0 failed\n",0

    36c4:	000058e4

    36c8:	"[SCAN_ERR] check nand id failed!\n",0
    36ec:	"NFC Read Retry Init.\n",0

    3704:	e1a00005 	mov	r0, r5
    3708:	ebfffd17 	bl	0x2b6c
    370c:	e2855001 	add	r5, r5, #1
    3710:	e5d40000 	ldrb	r0, [r4]
    3714:	e1500005 	cmp	r0, r5
    3718:	8afffff9 	bhi	0x3704
    371c:	e28f001c 	adr	r0, 0x3740
    3720:	ebfffac3 	bl	0x2234
    3724:	e5941020 	ldr	r1, [r4, #32]
    3728:	e28f0014 	adr	r0, 0x3744
    372c:	ebfffac0 	bl	0x2234
    3730:	e59f0038 	ldr	r0, =0x3770
    3734:	ebfffabe 	bl	0x2234
    3738:	e3a00000 	mov	r0, #0
    373c:	eaffff88 	b	0x3564

    3740:	00000a0a

    3744:	"[SCAN_DBG]    Read Retry Type:      0x%x\n",0

    3770:	00005934

    3774:	e59f0ed8 	ldr	r0, =0x4654
    3778:	e5901004 	ldr	r1, [r0, #4]
    377c:	e5910000 	ldr	r0, [r1]
    3780:	e7e12950 	ubfx	r2, r0, #18, #2
    3784:	e3520001 	cmp	r2, #1
    3788:	83800601 	orrhi	r0, r0, #1048576	; 0x100000
    378c:	85810000 	strhi	r0, [r1]
    3790:	e12fff1e 	bx	lr

    3794:	e59f0eb8 	ldr	r0, =0x4654
    3798:	e5901004 	ldr	r1, [r0, #4]
    379c:	e5910000 	ldr	r0, [r1]
    37a0:	e7e12950 	ubfx	r2, r0, #18, #2
    37a4:	e3520001 	cmp	r2, #1
    37a8:	83c00601 	bichi	r0, r0, #1048576	; 0x100000
    37ac:	85810000 	strhi	r0, [r1]
    37b0:	e12fff1e 	bx	lr

    37b4:	e59f1e98 	ldr	r1, =0x4654
    37b8:	e30f0fff 	movw	r0, #65535	; 0xffff
    37bc:	e5911004 	ldr	r1, [r1, #4]
    37c0:	e2500001 	subs	r0, r0, #1
    37c4:	3a000005 	bcc	0x37e0
    37c8:	e5912004 	ldr	r2, [r1, #4]
    37cc:	e3120008 	tst	r2, #8
    37d0:	1afffffa 	bne	0x37c0
    37d4:	e3500000 	cmp	r0, #0
    37d8:	c3a00000 	movgt	r0, #0
    37dc:	c12fff1e 	bxgt	lr
    37e0:	e3e0000d 	mvn	r0, #13
    37e4:	e12fff1e 	bx	lr

    37e8:	e59f1e64 	ldr	r1, =0x4654
    37ec:	e30f0fff 	movw	r0, #65535	; 0xffff
    37f0:	e5911004 	ldr	r1, [r1, #4]
    37f4:	e2500001 	subs	r0, r0, #1
    37f8:	3a000008 	bcc	0x3820
    37fc:	e5912004 	ldr	r2, [r1, #4]
    3800:	e3120002 	tst	r2, #2
    3804:	0afffffa 	beq	0x37f4
    3808:	e3500000 	cmp	r0, #0
    380c:	c5910004 	ldrgt	r0, [r1, #4]
    3810:	c2000002 	andgt	r0, r0, #2
    3814:	c5810004 	strgt	r0, [r1, #4]
    3818:	c3a00000 	movgt	r0, #0
    381c:	c12fff1e 	bxgt	lr
    3820:	e3e0000d 	mvn	r0, #13
    3824:	e12fff1e 	bx	lr

    3828:	e92d40f0 	push	{r4, r5, r6, r7, lr}
    382c:	e3500000 	cmp	r0, #0
    3830:	e24dd02c 	sub	sp, sp, #44	; 0x2c
    3834:	e59f7e1c 	ldr	r7, =0x4658
    3838:	e1a04002 	mov	r4, r2
    383c:	e1a05003 	mov	r5, r3
    3840:	e59d6040 	ldr	r6, [sp, #64]	; 0x40
    3844:	e3a0c003 	mov	ip, #3
    3848:	e3a03002 	mov	r3, #2
    384c:	e3a02001 	mov	r2, #1
    3850:	e3a01000 	mov	r1, #0
    3854:	0a000005 	beq	0x3870
    3858:	e3140103 	tst	r4, #-1073741824	; 0xc0000000
    385c:	058d1000 	streq	r1, [sp]
    3860:	158d2000 	strne	r2, [sp]
    3864:	e98d100e 	stmib	sp, {r1, r2, r3, ip}
    3868:	e58d2014 	str	r2, [sp, #20]
    386c:	ea000006 	b	0x388c
    3870:	e3150103 	tst	r5, #-1073741824	; 0xc0000000
    3874:	e58dc000 	str	ip, [sp]
    3878:	058d1010 	streq	r1, [sp, #16]
    387c:	e1cd20f8 	strd	r2, [sp, #8]
    3880:	e58d2004 	str	r2, [sp, #4]
    3884:	158d2010 	strne	r2, [sp, #16]
    3888:	e58d1014 	str	r1, [sp, #20]
    388c:	e58d7028 	str	r7, [sp, #40]	; 0x28
    3890:	e59f7dbc 	ldr	r7, =0x4654
    3894:	e1cd21f8 	strd	r2, [sp, #24]
    3898:	e58d1020 	str	r1, [sp, #32]
    389c:	e58d1024 	str	r1, [sp, #36]	; 0x24
    38a0:	e1a0100d 	mov	r1, sp
    38a4:	e597000c 	ldr	r0, [r7, #12]
    38a8:	ebfff9a4 	bl	0x1f40
    38ac:	e597000c 	ldr	r0, [r7, #12]
    38b0:	e1a03006 	mov	r3, r6
    38b4:	e1a02005 	mov	r2, r5
    38b8:	e1a01004 	mov	r1, r4
    38bc:	ebfff9bd 	bl	0x1fb8
    38c0:	e28dd02c 	add	sp, sp, #44	; 0x2c
    38c4:	e8bd80f0 	pop	{r4, r5, r6, r7, pc}
    38c8:	e92d4070 	push	{r4, r5, r6, lr}
    38cc:	e30f4fff 	movw	r4, #65535	; 0xffff
    38d0:	e59f5d7c 	ldr	r5, =0x4654
    38d4:	e2544001 	subs	r4, r4, #1
    38d8:	3a000006 	bcc	0x38f8
    38dc:	e595000c 	ldr	r0, [r5, #12]
    38e0:	ebfff9eb 	bl	0x2094
    38e4:	e3500000 	cmp	r0, #0
    38e8:	1afffff9 	bne	0x38d4
    38ec:	e3540000 	cmp	r4, #0
    38f0:	c3a00000 	movgt	r0, #0
    38f4:	c8bd8070 	popgt	{r4, r5, r6, pc}
    38f8:	e3e0000d 	mvn	r0, #13
    38fc:	e8bd8070 	pop	{r4, r5, r6, pc}
    3900:	e59f1d4c 	ldr	r1, =0x4654
    3904:	e30f0fff 	movw	r0, #65535	; 0xffff
    3908:	e5911004 	ldr	r1, [r1, #4]
    390c:	e5912000 	ldr	r2, [r1]
    3910:	e3822002 	orr	r2, r2, #2
    3914:	e5812000 	str	r2, [r1]
    3918:	e2500001 	subs	r0, r0, #1
    391c:	3a000005 	bcc	0x3938
    3920:	e5912000 	ldr	r2, [r1]
    3924:	e3120002 	tst	r2, #2
    3928:	1afffffa 	bne	0x3918
    392c:	e3500000 	cmp	r0, #0
    3930:	c3a00000 	movgt	r0, #0
    3934:	c12fff1e 	bxgt	lr
    3938:	e3e0000d 	mvn	r0, #13
    393c:	e12fff1e 	bx	lr
    3940:	e92d407f 	push	{r0, r1, r2, r3, r4, r5, r6, lr}
    3944:	e3a01010 	mov	r1, #16
    3948:	e59f2d04 	ldr	r2, =0x4654
    394c:	e5923004 	ldr	r3, [r2, #4]
    3950:	e5932034 	ldr	r2, [r3, #52]	; 0x34
    3954:	e7e32652 	ubfx	r2, r2, #12, #4
    3958:	e3520000 	cmp	r2, #0
    395c:	0a000016 	beq	0x39bc
    3960:	e3520001 	cmp	r2, #1
    3964:	03a01018 	moveq	r1, #24
    3968:	0a000013 	beq	0x39bc
    396c:	e3520002 	cmp	r2, #2
    3970:	03a0101c 	moveq	r1, #28
    3974:	0a000010 	beq	0x39bc
    3978:	e3520003 	cmp	r2, #3
    397c:	03a01020 	moveq	r1, #32
    3980:	0a00000d 	beq	0x39bc
    3984:	e3520004 	cmp	r2, #4
    3988:	03a01028 	moveq	r1, #40	; 0x28
    398c:	0a00000a 	beq	0x39bc
    3990:	e3520005 	cmp	r2, #5
    3994:	03a01030 	moveq	r1, #48	; 0x30
    3998:	0a000007 	beq	0x39bc
    399c:	e3520006 	cmp	r2, #6
    39a0:	03a01038 	moveq	r1, #56	; 0x38
    39a4:	0a000004 	beq	0x39bc
    39a8:	e3520007 	cmp	r2, #7
    39ac:	03a0103c 	moveq	r1, #60	; 0x3c
    39b0:	0a000001 	beq	0x39bc
    39b4:	e3520008 	cmp	r2, #8
    39b8:	03a01040 	moveq	r1, #64	; 0x40
    39bc:	e5934038 	ldr	r4, [r3, #56]	; 0x38
    39c0:	e3a02000 	mov	r2, #0
    39c4:	e6ff5074 	uxth	r5, r4
    39c8:	e3a04001 	mov	r4, #1
    39cc:	ea000005 	b	0x39e8
    39d0:	e1150214 	tst	r5, r4, lsl r2
    39d4:	02822001 	addeq	r2, r2, #1
    39d8:	0a000002 	beq	0x39e8
    39dc:	e3e0000b 	mvn	r0, #11
    39e0:	e28dd010 	add	sp, sp, #16
    39e4:	e8bd8070 	pop	{r4, r5, r6, pc}
    39e8:	e1520000 	cmp	r2, r0
    39ec:	3afffff7 	bcc	0x39d0
    39f0:	e5932040 	ldr	r2, [r3, #64]	; 0x40
    39f4:	e5cd2000 	strb	r2, [sp]
    39f8:	e1a04422 	lsr	r4, r2, #8
    39fc:	e5cd4001 	strb	r4, [sp, #1]
    3a00:	e1a04822 	lsr	r4, r2, #16
    3a04:	e1a02c22 	lsr	r2, r2, #24
    3a08:	e5cd4002 	strb	r4, [sp, #2]
    3a0c:	e5cd2003 	strb	r2, [sp, #3]
    3a10:	e5932044 	ldr	r2, [r3, #68]	; 0x44
    3a14:	e5cd2004 	strb	r2, [sp, #4]
    3a18:	e1a04422 	lsr	r4, r2, #8
    3a1c:	e5cd4005 	strb	r4, [sp, #5]
    3a20:	e1a04822 	lsr	r4, r2, #16
    3a24:	e1a02c22 	lsr	r2, r2, #24
    3a28:	e5cd4006 	strb	r4, [sp, #6]
    3a2c:	e5cd2007 	strb	r2, [sp, #7]
    3a30:	e5932048 	ldr	r2, [r3, #72]	; 0x48
    3a34:	e5cd2008 	strb	r2, [sp, #8]
    3a38:	e1a04422 	lsr	r4, r2, #8
    3a3c:	e5cd4009 	strb	r4, [sp, #9]
    3a40:	e1a04822 	lsr	r4, r2, #16
    3a44:	e1a02c22 	lsr	r2, r2, #24
    3a48:	e5cd400a 	strb	r4, [sp, #10]
    3a4c:	e5cd200b 	strb	r2, [sp, #11]
    3a50:	e593204c 	ldr	r2, [r3, #76]	; 0x4c
    3a54:	e2411004 	sub	r1, r1, #4
    3a58:	e5cd200c 	strb	r2, [sp, #12]
    3a5c:	e1a03422 	lsr	r3, r2, #8
    3a60:	e5cd300d 	strb	r3, [sp, #13]
    3a64:	e1a03822 	lsr	r3, r2, #16
    3a68:	e1a02c22 	lsr	r2, r2, #24
    3a6c:	e5cd300e 	strb	r3, [sp, #14]
    3a70:	e5cd200f 	strb	r2, [sp, #15]
    3a74:	e3a02000 	mov	r2, #0
    3a78:	e1a0300d 	mov	r3, sp
    3a7c:	ea000005 	b	0x3a98
    3a80:	e7d34002 	ldrb	r4, [r3, r2]
    3a84:	e1540001 	cmp	r4, r1
    3a88:	32822001 	addcc	r2, r2, #1
    3a8c:	3a000001 	bcc	0x3a98
    3a90:	e3a0000a 	mov	r0, #10
    3a94:	eaffffd1 	b	0x39e0
    3a98:	e1520000 	cmp	r2, r0
    3a9c:	3afffff7 	bcc	0x3a80
    3aa0:	e3a00000 	mov	r0, #0
    3aa4:	eaffffcd 	b	0x39e0
    3aa8:	e59f0ba4 	ldr	r0, =0x4654
    3aac:	e5900004 	ldr	r0, [r0, #4]
    3ab0:	e5901034 	ldr	r1, [r0, #52]	; 0x34
    3ab4:	e3c11001 	bic	r1, r1, #1
    3ab8:	e5801034 	str	r1, [r0, #52]	; 0x34
    3abc:	e12fff1e 	bx	lr
    3ac0:	e59f1b8c 	ldr	r1, =0x4654
    3ac4:	e3500001 	cmp	r0, #1
    3ac8:	e5911004 	ldr	r1, [r1, #4]
    3acc:	e5910034 	ldr	r0, [r1, #52]	; 0x34
    3ad0:	13c00008 	bicne	r0, r0, #8
    3ad4:	03800008 	orreq	r0, r0, #8
    3ad8:	e3100c02 	tst	r0, #512	; 0x200
    3adc:	03800010 	orreq	r0, r0, #16
    3ae0:	13c00010 	bicne	r0, r0, #16
    3ae4:	e3800001 	orr	r0, r0, #1
    3ae8:	e5810034 	str	r0, [r1, #52]	; 0x34
    3aec:	e12fff1e 	bx	lr
    3af0:	e10f0000 	mrs	r0, CPSR
    3af4:	e59f1b58 	ldr	r1, =0x4654
    3af8:	e5810010 	str	r0, [r1, #16]
    3afc:	e3800080 	orr	r0, r0, #128	; 0x80
    3b00:	e121f000 	msr	CPSR_c, r0
    3b04:	e3a00000 	mov	r0, #0
    3b08:	e12fff1e 	bx	lr
    3b0c:	e59f0b40 	ldr	r0, =0x4654
    3b10:	e5900010 	ldr	r0, [r0, #16]
    3b14:	e121f000 	msr	CPSR_c, r0
    3b18:	e3a00000 	mov	r0, #0
    3b1c:	e12fff1e 	bx	lr
    3b20:	e3a00000 	mov	r0, #0
    3b24:	e12fff1e 	bx	lr
    3b28:	e3a00000 	mov	r0, #0
    3b2c:	e12fff1e 	bx	lr
    3b30:	e3a03000 	mov	r3, #0
    3b34:	e92d4070 	push	{r4, r5, r6, lr}
    3b38:	e1a04003 	mov	r4, r3
    3b3c:	e1a02003 	mov	r2, r3
    3b40:	ea000008 	b	0x3b68
    3b44:	e3520004 	cmp	r2, #4
    3b48:	27d06002 	ldrbcs	r6, [r0, r2]
    3b4c:	21a05182 	lslcs	r5, r2, #3
    3b50:	22455020 	subcs	r5, r5, #32
    3b54:	21844516 	orrcs	r4, r4, r6, lsl r5
    3b58:	37d05002 	ldrbcc	r5, [r0, r2]
    3b5c:	31a06182 	lslcc	r6, r2, #3
    3b60:	e2822001 	add	r2, r2, #1
    3b64:	31833615 	orrcc	r3, r3, r5, lsl r6
    3b68:	e1520001 	cmp	r2, r1
    3b6c:	3afffff4 	bcc	0x3b44
    3b70:	e59f0adc 	ldr	r0, =0x4654
    3b74:	e5900004 	ldr	r0, [r0, #4]
    3b78:	e5803014 	str	r3, [r0, #20]
    3b7c:	e5804018 	str	r4, [r0, #24]
    3b80:	e8bd8070 	pop	{r4, r5, r6, pc}
    3b84:	e92d4ff8 	push	{r3, r4, r5, r6, r7, r8, r9, sl, fp, lr}
    3b88:	e1a04000 	mov	r4, r0
    3b8c:	e5900000 	ldr	r0, [r0]
    3b90:	e3510101 	cmp	r1, #1073741824	; 0x40000000
    3b94:	e59f5ab8 	ldr	r5, =0x4654
    3b98:	e1a0c001 	mov	ip, r1
    3b9c:	e1a06002 	mov	r6, r2
    3ba0:	e1a07003 	mov	r7, r3
    3ba4:	e5909010 	ldr	r9, [r0, #16]
    3ba8:	e5900000 	ldr	r0, [r0]
    3bac:	e590a010 	ldr	sl, [r0, #16]
    3bb0:	e5900000 	ldr	r0, [r0]
    3bb4:	e5908010 	ldr	r8, [r0, #16]
    3bb8:	e5950004 	ldr	r0, [r5, #4]
    3bbc:	e5901000 	ldr	r1, [r0]
    3bc0:	e3811901 	orr	r1, r1, #16384	; 0x4000
    3bc4:	e5801000 	str	r1, [r0]
    3bc8:	e2802030 	add	r2, r0, #48	; 0x30
    3bcc:	e5953008 	ldr	r3, [r5, #8]
    3bd0:	e3a00000 	mov	r0, #0
    3bd4:	359f1a80 	ldrcc	r1, [pc, #2688]	; 0x465c
    3bd8:	259f1a80 	ldrcs	r1, [pc, #2688]	; 0x4660
    3bdc:	e58d3000 	str	r3, [sp]
    3be0:	e1a0300c 	mov	r3, ip
    3be4:	ebffff0f 	bl	0x3828
    3be8:	ebfffef1 	bl	0x37b4
    3bec:	e3500000 	cmp	r0, #0
    3bf0:	1a000026 	bne	0x3c90
    3bf4:	e5950004 	ldr	r0, [r5, #4]
    3bf8:	e3a01b01 	mov	r1, #1024	; 0x400
    3bfc:	e5801020 	str	r1, [r0, #32]
    3c00:	e20920ff 	and	r2, r9, #255	; 0xff
    3c04:	e20810ff 	and	r1, r8, #255	; 0xff
    3c08:	e1811402 	orr	r1, r1, r2, lsl #8
    3c0c:	e20a20ff 	and	r2, sl, #255	; 0xff
    3c10:	e1811802 	orr	r1, r1, r2, lsl #16
    3c14:	e5801028 	str	r1, [r0, #40]	; 0x28
    3c18:	e5951008 	ldr	r1, [r5, #8]
    3c1c:	e1a01521 	lsr	r1, r1, #10
    3c20:	e580101c 	str	r1, [r0, #28]
    3c24:	e5d41008 	ldrb	r1, [r4, #8]
    3c28:	e5940004 	ldr	r0, [r4, #4]
    3c2c:	ebffffbf 	bl	0x3b30
    3c30:	e5d41008 	ldrb	r1, [r4, #8]
    3c34:	e59f2a28 	ldr	r2, =0x4664
    3c38:	e5940010 	ldr	r0, [r4, #16]
    3c3c:	e0821801 	add	r1, r2, r1, lsl #16
    3c40:	e1800001 	orr	r0, r0, r1
    3c44:	e3803321 	orr	r3, r0, #-2080374784	; 0x84000000
    3c48:	e5950008 	ldr	r0, [r5, #8]
    3c4c:	e383377a 	orr	r3, r3, #31981568	; 0x1e80000
    3c50:	e2400b01 	sub	r0, r0, #1024	; 0x400
    3c54:	e3500b01 	cmp	r0, #1024	; 0x400
    3c58:	e3a00001 	mov	r0, #1
    3c5c:	33833402 	orrcc	r3, r3, #33554432	; 0x2000000
    3c60:	ebffff96 	bl	0x3ac0
    3c64:	e5950004 	ldr	r0, [r5, #4]
    3c68:	e5803024 	str	r3, [r0, #36]	; 0x24
    3c6c:	ebfff968 	bl	0x2214
    3c70:	ebfffecf 	bl	0x37b4
    3c74:	e1a03000 	mov	r3, r0
    3c78:	ebfffeda 	bl	0x37e8
    3c7c:	e1902003 	orrs	r2, r0, r3
    3c80:	03a00000 	moveq	r0, #0
    3c84:	0a000008 	beq	0x3cac
    3c88:	ebffff86 	bl	0x3aa8
    3c8c:	e1a00002 	mov	r0, r2
    3c90:	e8bd8ff8 	pop	{r3, r4, r5, r6, r7, r8, r9, sl, fp, pc}
    3c94:	e5952004 	ldr	r2, [r5, #4]
    3c98:	e2801001 	add	r1, r0, #1
    3c9c:	e0822100 	add	r2, r2, r0, lsl #2
    3ca0:	e5922050 	ldr	r2, [r2, #80]	; 0x50
    3ca4:	e7862100 	str	r2, [r6, r0, lsl #2]
    3ca8:	e1a00001 	mov	r0, r1
    3cac:	e5951008 	ldr	r1, [r5, #8]
    3cb0:	e1500521 	cmp	r0, r1, lsr #10
    3cb4:	3afffff6 	bcc	0x3c94
    3cb8:	e1a00521 	lsr	r0, r1, #10
    3cbc:	ebffff1f 	bl	0x3940
    3cc0:	e1a04000 	mov	r4, r0
    3cc4:	ebffff77 	bl	0x3aa8
    3cc8:	e3570000 	cmp	r7, #0
    3ccc:	1a000002 	bne	0x3cdc
    3cd0:	ebfffefc 	bl	0x38c8
    3cd4:	e3500000 	cmp	r0, #0
    3cd8:	18bd8ff8 	popne	{r3, r4, r5, r6, r7, r8, r9, sl, fp, pc}
    3cdc:	e1a00004 	mov	r0, r4
    3ce0:	e8bd8ff8 	pop	{r3, r4, r5, r6, r7, r8, r9, sl, fp, pc}
    3ce4:	e92d4010 	push	{r4, lr}
    3ce8:	ebffffa5 	bl	0x3b84
    3cec:	e59f1960 	ldr	r1, =0x4654
    3cf0:	e5911004 	ldr	r1, [r1, #4]
    3cf4:	e5912000 	ldr	r2, [r1]
    3cf8:	e3c22901 	bic	r2, r2, #16384	; 0x4000
    3cfc:	e5812000 	str	r2, [r1]
    3d00:	e8bd8010 	pop	{r4, pc}
    3d04:	e92d4030 	push	{r4, r5, lr}
    3d08:	e1a04000 	mov	r4, r0
    3d0c:	e59f5940 	ldr	r5, =0x4654
    3d10:	ea00001f 	b	0x3d94
    3d14:	ebfffea6 	bl	0x37b4
    3d18:	e3500000 	cmp	r0, #0
    3d1c:	18bd8030 	popne	{r4, r5, pc}
    3d20:	e3a00000 	mov	r0, #0
    3d24:	e5d41008 	ldrb	r1, [r4, #8]
    3d28:	e3510000 	cmp	r1, #0
    3d2c:	0a000005 	beq	0x3d48
    3d30:	e5940004 	ldr	r0, [r4, #4]
    3d34:	ebffff7d 	bl	0x3b30
    3d38:	e5d40008 	ldrb	r0, [r4, #8]
    3d3c:	e59f1920 	ldr	r1, =0x4664
    3d40:	e0810800 	add	r0, r1, r0, lsl #16
    3d44:	e3800702 	orr	r0, r0, #524288	; 0x80000
    3d48:	e5941010 	ldr	r1, [r4, #16]
    3d4c:	e5d4200b 	ldrb	r2, [r4, #11]
    3d50:	e1800001 	orr	r0, r0, r1
    3d54:	e5d41009 	ldrb	r1, [r4, #9]
    3d58:	e3520000 	cmp	r2, #0
    3d5c:	13800502 	orrne	r0, r0, #8388608	; 0x800000
    3d60:	e3510000 	cmp	r1, #0
    3d64:	0a000006 	beq	0x3d84
    3d68:	e5951004 	ldr	r1, [r5, #4]
    3d6c:	e3800602 	orr	r0, r0, #2097152	; 0x200000
    3d70:	e5912000 	ldr	r2, [r1]
    3d74:	e3c22901 	bic	r2, r2, #16384	; 0x4000
    3d78:	e5812000 	str	r2, [r1]
    3d7c:	e594200c 	ldr	r2, [r4, #12]
    3d80:	e5812020 	str	r2, [r1, #32]
    3d84:	e3800501 	orr	r0, r0, #4194304	; 0x400000
    3d88:	e5951004 	ldr	r1, [r5, #4]
    3d8c:	e5810024 	str	r0, [r1, #36]	; 0x24
    3d90:	e5944000 	ldr	r4, [r4]
    3d94:	e3540000 	cmp	r4, #0
    3d98:	1affffdd 	bne	0x3d14
    3d9c:	e3a00000 	mov	r0, #0
    3da0:	e8bd8030 	pop	{r4, r5, pc}
    3da4:	e59f18a8 	ldr	r1, =0x4654
    3da8:	e5911004 	ldr	r1, [r1, #4]
    3dac:	e5912034 	ldr	r2, [r1, #52]	; 0x34
    3db0:	e6ff2072 	uxth	r2, r2
    3db4:	e1820800 	orr	r0, r2, r0, lsl #16
    3db8:	e5810034 	str	r0, [r1, #52]	; 0x34
    3dbc:	e3a00000 	mov	r0, #0
    3dc0:	e12fff1e 	bx	lr
    3dc4:	e59f0888 	ldr	r0, =0x4654
    3dc8:	e5900004 	ldr	r0, [r0, #4]
    3dcc:	e5901034 	ldr	r1, [r0, #52]	; 0x34
    3dd0:	e3811c02 	orr	r1, r1, #512	; 0x200
    3dd4:	e5801034 	str	r1, [r0, #52]	; 0x34
    3dd8:	e3a00000 	mov	r0, #0
    3ddc:	e12fff1e 	bx	lr
    3de0:	e59f086c 	ldr	r0, =0x4654
    3de4:	e5900004 	ldr	r0, [r0, #4]
    3de8:	e5901034 	ldr	r1, [r0, #52]	; 0x34
    3dec:	e3c11c02 	bic	r1, r1, #512	; 0x200
    3df0:	e5801034 	str	r1, [r0, #52]	; 0x34
    3df4:	e3a00000 	mov	r0, #0
    3df8:	e12fff1e 	bx	lr
    3dfc:	e92d4030 	push	{r4, r5, lr}
    3e00:	e1a03000 	mov	r3, r0
    3e04:	e1a04001 	mov	r4, r1
    3e08:	ebfffe59 	bl	0x3774
    3e0c:	e1a00003 	mov	r0, r3
    3e10:	ebffffbb 	bl	0x3d04
    3e14:	e3500000 	cmp	r0, #0
    3e18:	18bd8030 	popne	{r4, r5, pc}
    3e1c:	ebfffe64 	bl	0x37b4
    3e20:	e1a03000 	mov	r3, r0
    3e24:	ebfffe6f 	bl	0x37e8
    3e28:	e59f2824 	ldr	r2, =0x4654
    3e2c:	e1833000 	orr	r3, r3, r0
    3e30:	e3a00000 	mov	r0, #0
    3e34:	e1a01000 	mov	r1, r0
    3e38:	e2800001 	add	r0, r0, #1
    3e3c:	e5925004 	ldr	r5, [r2, #4]
    3e40:	e3500006 	cmp	r0, #6
    3e44:	e0855001 	add	r5, r5, r1
    3e48:	e5d55400 	ldrb	r5, [r5, #1024]	; 0x400
    3e4c:	e7c45001 	strb	r5, [r4, r1]
    3e50:	3afffff7 	bcc	0x3e34
    3e54:	ebfffe4e 	bl	0x3794
    3e58:	e1a00003 	mov	r0, r3
    3e5c:	e8bd8030 	pop	{r4, r5, pc}
    3e60:	e92d4030 	push	{r4, r5, lr}
    3e64:	e1a03000 	mov	r3, r0
    3e68:	e1a04001 	mov	r4, r1
    3e6c:	ebfffe40 	bl	0x3774
    3e70:	e1a00003 	mov	r0, r3
    3e74:	ebffffa2 	bl	0x3d04
    3e78:	e3500000 	cmp	r0, #0
    3e7c:	18bd8030 	popne	{r4, r5, pc}
    3e80:	ebfffe4b 	bl	0x37b4
    3e84:	e1a03000 	mov	r3, r0
    3e88:	ebfffe56 	bl	0x37e8
    3e8c:	e59f27c0 	ldr	r2, =0x4654
    3e90:	e1833000 	orr	r3, r3, r0
    3e94:	e3a00000 	mov	r0, #0
    3e98:	e1a01000 	mov	r1, r0
    3e9c:	e2800001 	add	r0, r0, #1
    3ea0:	e5925004 	ldr	r5, [r2, #4]
    3ea4:	e3500020 	cmp	r0, #32
    3ea8:	e0855001 	add	r5, r5, r1
    3eac:	e5d55400 	ldrb	r5, [r5, #1024]	; 0x400
    3eb0:	e7c45001 	strb	r5, [r4, r1]
    3eb4:	3afffff7 	bcc	0x3e98
    3eb8:	ebfffe35 	bl	0x3794
    3ebc:	e1a00003 	mov	r0, r3
    3ec0:	e8bd8030 	pop	{r4, r5, pc}
    3ec4:	e52de004 	push	{lr}		; (str lr, [sp, #-4]!)
    3ec8:	e1a03000 	mov	r3, r0
    3ecc:	ebfffe28 	bl	0x3774
    3ed0:	e1a00003 	mov	r0, r3
    3ed4:	ebffff8a 	bl	0x3d04
    3ed8:	e3500000 	cmp	r0, #0
    3edc:	149df004 	popne	{pc}		; (ldrne pc, [sp], #4)
    3ee0:	ebfffe33 	bl	0x37b4
    3ee4:	e1a03000 	mov	r3, r0
    3ee8:	ebfffe3e 	bl	0x37e8
    3eec:	e1900003 	orrs	r0, r0, r3
    3ef0:	149df004 	popne	{pc}		; (ldrne pc, [sp], #4)
    3ef4:	ebfffe26 	bl	0x3794
    3ef8:	e59f0754 	ldr	r0, =0x4654
    3efc:	e5900004 	ldr	r0, [r0, #4]
    3f00:	e5d00400 	ldrb	r0, [r0, #1024]	; 0x400
    3f04:	e49df004 	pop	{pc}		; (ldr pc, [sp], #4)
    3f08:	e52de004 	push	{lr}		; (str lr, [sp, #-4]!)
    3f0c:	ebffff7c 	bl	0x3d04
    3f10:	e3500000 	cmp	r0, #0
    3f14:	149df004 	popne	{pc}		; (ldrne pc, [sp], #4)
    3f18:	ebfffe25 	bl	0x37b4
    3f1c:	e1a03000 	mov	r3, r0
    3f20:	ebfffe30 	bl	0x37e8
    3f24:	e1800003 	orr	r0, r0, r3
    3f28:	e49df004 	pop	{pc}		; (ldr pc, [sp], #4)
    3f2c:	e59f1720 	ldr	r1, =0x4654
    3f30:	e5911004 	ldr	r1, [r1, #4]
    3f34:	e5912000 	ldr	r2, [r1]
    3f38:	e2000007 	and	r0, r0, #7
    3f3c:	e3c22407 	bic	r2, r2, #117440512	; 0x7000000
    3f40:	e1820c00 	orr	r0, r2, r0, lsl #24
    3f44:	e5810000 	str	r0, [r1]
    3f48:	e3a00000 	mov	r0, #0
    3f4c:	e12fff1e 	bx	lr
    3f50:	e59f16fc 	ldr	r1, =0x4654
    3f54:	e5911004 	ldr	r1, [r1, #4]
    3f58:	e5912000 	ldr	r2, [r1]
    3f5c:	e2000001 	and	r0, r0, #1
    3f60:	e3c22008 	bic	r2, r2, #8
    3f64:	e1820180 	orr	r0, r2, r0, lsl #3
    3f68:	e5810000 	str	r0, [r1]
    3f6c:	e3a00000 	mov	r0, #0
    3f70:	e12fff1e 	bx	lr
    3f74:	e3a00000 	mov	r0, #0
    3f78:	e12fff1e 	bx	lr
    3f7c:	e3a00000 	mov	r0, #0
    3f80:	e12fff1e 	bx	lr
    3f84:	e59f16c8 	ldr	r1, =0x4654
    3f88:	e2002003 	and	r2, r0, #3
    3f8c:	e3a03c01 	mov	r3, #256	; 0x100
    3f90:	e5911004 	ldr	r1, [r1, #4]
    3f94:	e5910004 	ldr	r0, [r1, #4]
    3f98:	e1100213 	tst	r0, r3, lsl r2
    3f9c:	03e00000 	mvneq	r0, #0
    3fa0:	13a00000 	movne	r0, #0
    3fa4:	e12fff1e 	bx	lr
    3fa8:	e92d4030 	push	{r4, r5, lr}
    3fac:	e1a03000 	mov	r3, r0
    3fb0:	e5d00004 	ldrb	r0, [r0, #4]
    3fb4:	e59f4698 	ldr	r4, =0x4654
    3fb8:	e1a00480 	lsl	r0, r0, #9
    3fbc:	e5840008 	str	r0, [r4, #8]
    3fc0:	ebfffe4e 	bl	0x3900
    3fc4:	e5d31000 	ldrb	r1, [r3]
    3fc8:	e3a00001 	mov	r0, #1
    3fcc:	e2011001 	and	r1, r1, #1
    3fd0:	e1800101 	orr	r0, r0, r1, lsl #2
    3fd4:	e5d31002 	ldrb	r1, [r3, #2]
    3fd8:	e2011001 	and	r1, r1, #1
    3fdc:	e1800301 	orr	r0, r0, r1, lsl #6
    3fe0:	e5d31003 	ldrb	r1, [r3, #3]
    3fe4:	e2011001 	and	r1, r1, #1
    3fe8:	e1800381 	orr	r0, r0, r1, lsl #7
    3fec:	e5d31004 	ldrb	r1, [r3, #4]
    3ff0:	e3510002 	cmp	r1, #2
    3ff4:	0a00000b 	beq	0x4028
    3ff8:	e3510004 	cmp	r1, #4
    3ffc:	03800c01 	orreq	r0, r0, #256	; 0x100
    4000:	0a000008 	beq	0x4028
    4004:	e3510008 	cmp	r1, #8
    4008:	0a000005 	beq	0x4024
    400c:	e3510010 	cmp	r1, #16
    4010:	03800c03 	orreq	r0, r0, #768	; 0x300
    4014:	0a000003 	beq	0x4028
    4018:	e3510020 	cmp	r1, #32
    401c:	03800b01 	orreq	r0, r0, #1024	; 0x400
    4020:	0a000000 	beq	0x4028
    4024:	e3800c02 	orr	r0, r0, #512	; 0x200
    4028:	e5d32006 	ldrb	r2, [r3, #6]
    402c:	e5d31007 	ldrb	r1, [r3, #7]
    4030:	e2022003 	and	r2, r2, #3
    4034:	e1800902 	orr	r0, r0, r2, lsl #18
    4038:	e1802f81 	orr	r2, r0, r1, lsl #31
    403c:	e5941004 	ldr	r1, [r4, #4]
    4040:	e3a00000 	mov	r0, #0
    4044:	e5812000 	str	r2, [r1]
    4048:	e5d32006 	ldrb	r2, [r3, #6]
    404c:	e3120003 	tst	r2, #3
    4050:	05d32005 	ldrbeq	r2, [r3, #5]
    4054:	02022001 	andeq	r2, r2, #1
    4058:	01800402 	orreq	r0, r0, r2, lsl #8
    405c:	0a000006 	beq	0x407c
    4060:	e2023003 	and	r3, r2, #3
    4064:	e3530002 	cmp	r3, #2
    4068:	0300033f 	movweq	r0, #831	; 0x33f
    406c:	0a000002 	beq	0x407c
    4070:	e3a03003 	mov	r3, #3
    4074:	e1d32002 	bics	r2, r3, r2
    4078:	0300021f 	movweq	r0, #543	; 0x21f
    407c:	e581000c 	str	r0, [r1, #12]
    4080:	e3a000ff 	mov	r0, #255	; 0xff
    4084:	e5810010 	str	r0, [r1, #16]
    4088:	e5940008 	ldr	r0, [r4, #8]
    408c:	e58100a0 	str	r0, [r1, #160]	; 0xa0
    4090:	e3a00000 	mov	r0, #0
    4094:	e8bd8030 	pop	{r4, r5, pc}
    4098:	e59f15b4 	ldr	r1, =0x4654
    409c:	e5911004 	ldr	r1, [r1, #4]
    40a0:	e5912034 	ldr	r2, [r1, #52]	; 0x34
    40a4:	e3a03a0f 	mov	r3, #61440	; 0xf000
    40a8:	e0030600 	and	r0, r3, r0, lsl #12
    40ac:	e3c22a0f 	bic	r2, r2, #61440	; 0xf000
    40b0:	e1800002 	orr	r0, r0, r2
    40b4:	e5810034 	str	r0, [r1, #52]	; 0x34
    40b8:	e3a00000 	mov	r0, #0
    40bc:	e12fff1e 	bx	lr
    40c0:	e92d4070 	push	{r4, r5, r6, lr}
    40c4:	e1a05000 	mov	r5, r0
    40c8:	ebfff849 	bl	0x21f4
    40cc:	ebfff7f9 	bl	0x20b8
    40d0:	e3a0000a 	mov	r0, #10
    40d4:	ebfff817 	bl	0x2138
    40d8:	e3700001 	cmn	r0, #1
    40dc:	0a00000f 	beq	0x4120
    40e0:	e3a01a01 	mov	r1, #4096	; 0x1000
    40e4:	e59f057c 	ldr	r0, =0x4668
    40e8:	ebfff84e 	bl	0x2228
    40ec:	e59f4560 	ldr	r4, =0x4654
    40f0:	e5840004 	str	r0, [r4, #4]
    40f4:	e3a00000 	mov	r0, #0
    40f8:	ebffffe6 	bl	0x4098
    40fc:	e1a00005 	mov	r0, r5
    4100:	ebffffa8 	bl	0x3fa8
    4104:	e1a05000 	mov	r5, r0
    4108:	e3a00001 	mov	r0, #1
    410c:	ebfff781 	bl	0x1f18
    4110:	e3500000 	cmp	r0, #0
    4114:	e584000c 	str	r0, [r4, #12]
    4118:	11a00005 	movne	r0, r5
    411c:	18bd8070 	popne	{r4, r5, r6, pc}
    4120:	e3e00000 	mvn	r0, #0
    4124:	e8bd8070 	pop	{r4, r5, r6, pc}
    4128:	e59f2524 	ldr	r2, =0x4654
    412c:	e92d4010 	push	{r4, lr}
    4130:	e5920004 	ldr	r0, [r2, #4]
    4134:	e5901000 	ldr	r1, [r0]
    4138:	e3c11001 	bic	r1, r1, #1
    413c:	e5801000 	str	r1, [r0]
    4140:	e592000c 	ldr	r0, [r2, #12]
    4144:	ebfff777 	bl	0x1f28
    4148:	ebfff830 	bl	0x2210
    414c:	e8bd4010 	pop	{r4, lr}
    4150:	eafff7de 	b	0x20d0
    4154:	e92d43f0 	push	{r4, r5, r6, r7, r8, r9, lr}
    4158:	e1a07001 	mov	r7, r1
    415c:	e59f94f0 	ldr	r9, =0x4654
    4160:	e1a06000 	mov	r6, r0
    4164:	e3a05000 	mov	r5, #0
    4168:	e1a0c002 	mov	ip, r2
    416c:	e1a00005 	mov	r0, r5
    4170:	e5d91000 	ldrb	r1, [r9]
    4174:	e3510010 	cmp	r1, #16
    4178:	33a05037 	movcc	r5, #55	; 0x37
    417c:	3a000002 	bcc	0x418c
    4180:	e2411010 	sub	r1, r1, #16
    4184:	e3510010 	cmp	r1, #16
    4188:	38bd83f0 	popcc	{r4, r5, r6, r7, r8, r9, pc}
    418c:	e3a04000 	mov	r4, #0
    4190:	e3a08001 	mov	r8, #1
    4194:	ea000010 	b	0x41dc
    4198:	e0870004 	add	r0, r7, r4
    419c:	e3a01001 	mov	r1, #1
    41a0:	ebfffe62 	bl	0x3b30
    41a4:	e5990004 	ldr	r0, [r9, #4]
    41a8:	e5808020 	str	r8, [r0, #32]
    41ac:	e385171a 	orr	r1, r5, #6815744	; 0x680000
    41b0:	e5801024 	str	r1, [r0, #36]	; 0x24
    41b4:	ebfffd7e 	bl	0x37b4
    41b8:	e1a03000 	mov	r3, r0
    41bc:	ebfffd89 	bl	0x37e8
    41c0:	e1900003 	orrs	r0, r0, r3
    41c4:	18bd83f0 	popne	{r4, r5, r6, r7, r8, r9, pc}
    41c8:	e2841001 	add	r1, r4, #1
    41cc:	e5992004 	ldr	r2, [r9, #4]
    41d0:	e5d22400 	ldrb	r2, [r2, #1024]	; 0x400
    41d4:	e7c62004 	strb	r2, [r6, r4]
    41d8:	e1a04001 	mov	r4, r1
    41dc:	e154000c 	cmp	r4, ip
    41e0:	3affffec 	bcc	0x4198
    41e4:	e8bd83f0 	pop	{r4, r5, r6, r7, r8, r9, pc}
    41e8:	e92d4ff0 	push	{r4, r5, r6, r7, r8, r9, sl, fp, lr}
    41ec:	e1a08001 	mov	r8, r1
    41f0:	e59f745c 	ldr	r7, =0x4654
    41f4:	e3a050ff 	mov	r5, #255	; 0xff
    41f8:	e1a06005 	mov	r6, r5
    41fc:	e1a0c000 	mov	ip, r0
    4200:	e1a0b002 	mov	fp, r2
    4204:	e1a09005 	mov	r9, r5
    4208:	e5d71000 	ldrb	r1, [r7]
    420c:	e1a0a005 	mov	sl, r5
    4210:	e3a00000 	mov	r0, #0
    4214:	e3510010 	cmp	r1, #16
    4218:	33a05036 	movcc	r5, #54	; 0x36
    421c:	33a06016 	movcc	r6, #22
    4220:	3a000008 	bcc	0x4248
    4224:	e2412010 	sub	r2, r1, #16
    4228:	e3520010 	cmp	r2, #16
    422c:	33a05055 	movcc	r5, #85	; 0x55
    4230:	33a09026 	movcc	r9, #38	; 0x26
    4234:	33a0a05d 	movcc	sl, #93	; 0x5d
    4238:	3a000002 	bcc	0x4248
    423c:	e2411020 	sub	r1, r1, #32
    4240:	e3510010 	cmp	r1, #16
    4244:	33a050a1 	movcc	r5, #161	; 0xa1
    4248:	e3a04000 	mov	r4, #0
    424c:	ea00002d 	b	0x4308
    4250:	e5d70000 	ldrb	r0, [r7]
    4254:	e2400020 	sub	r0, r0, #32
    4258:	e3500010 	cmp	r0, #16
    425c:	2a00000e 	bcs	0x429c
    4260:	e5970004 	ldr	r0, [r7, #4]
    4264:	e3a01000 	mov	r1, #0
    4268:	e5c01400 	strb	r1, [r0, #1024]	; 0x400
    426c:	e7d81004 	ldrb	r1, [r8, r4]
    4270:	e5c01401 	strb	r1, [r0, #1025]	; 0x401
    4274:	e7dc1004 	ldrb	r1, [ip, r4]
    4278:	e5c01402 	strb	r1, [r0, #1026]	; 0x402
    427c:	e3a01003 	mov	r1, #3
    4280:	e5801020 	str	r1, [r0, #32]
    4284:	e3853607 	orr	r3, r5, #7340032	; 0x700000
    4288:	ebfffd39 	bl	0x3774
    428c:	e5970004 	ldr	r0, [r7, #4]
    4290:	e5803024 	str	r3, [r0, #36]	; 0x24
    4294:	ebfffd3e 	bl	0x3794
    4298:	ea00000a 	b	0x42c8
    429c:	e5971004 	ldr	r1, [r7, #4]
    42a0:	e7dc0004 	ldrb	r0, [ip, r4]
    42a4:	e5c10400 	strb	r0, [r1, #1024]	; 0x400
    42a8:	e0880004 	add	r0, r8, r4
    42ac:	e3a01001 	mov	r1, #1
    42b0:	ebfffe1e 	bl	0x3b30
    42b4:	e5970004 	ldr	r0, [r7, #4]
    42b8:	e3a01001 	mov	r1, #1
    42bc:	e5801020 	str	r1, [r0, #32]
    42c0:	e385171e 	orr	r1, r5, #7864320	; 0x780000
    42c4:	e5801024 	str	r1, [r0, #36]	; 0x24
    42c8:	ebfffd39 	bl	0x37b4
    42cc:	e1a03000 	mov	r3, r0
    42d0:	ebfffd44 	bl	0x37e8
    42d4:	e1900003 	orrs	r0, r0, r3
    42d8:	18bd8ff0 	popne	{r4, r5, r6, r7, r8, r9, sl, fp, pc}
    42dc:	e35600ff 	cmp	r6, #255	; 0xff
    42e0:	0a000007 	beq	0x4304
    42e4:	e5971004 	ldr	r1, [r7, #4]
    42e8:	e3860501 	orr	r0, r6, #4194304	; 0x400000
    42ec:	e5810024 	str	r0, [r1, #36]	; 0x24
    42f0:	ebfffd2f 	bl	0x37b4
    42f4:	e1a03000 	mov	r3, r0
    42f8:	ebfffd3a 	bl	0x37e8
    42fc:	e1900003 	orrs	r0, r0, r3
    4300:	18bd8ff0 	popne	{r4, r5, r6, r7, r8, r9, sl, fp, pc}
    4304:	e2844001 	add	r4, r4, #1
    4308:	e154000b 	cmp	r4, fp
    430c:	3affffcf 	bcc	0x4250
    4310:	e35900ff 	cmp	r9, #255	; 0xff
    4314:	0a000007 	beq	0x4338
    4318:	e5971004 	ldr	r1, [r7, #4]
    431c:	e3890501 	orr	r0, r9, #4194304	; 0x400000
    4320:	e5810024 	str	r0, [r1, #36]	; 0x24
    4324:	ebfffd22 	bl	0x37b4
    4328:	e1a03000 	mov	r3, r0
    432c:	ebfffd2d 	bl	0x37e8
    4330:	e1900003 	orrs	r0, r0, r3
    4334:	18bd8ff0 	popne	{r4, r5, r6, r7, r8, r9, sl, fp, pc}
    4338:	e35a00ff 	cmp	sl, #255	; 0xff
    433c:	08bd8ff0 	popeq	{r4, r5, r6, r7, r8, r9, sl, fp, pc}
    4340:	e38a0501 	orr	r0, sl, #4194304	; 0x400000
    4344:	e5971004 	ldr	r1, [r7, #4]
    4348:	e5810024 	str	r0, [r1, #36]	; 0x24
    434c:	ebfffd18 	bl	0x37b4
    4350:	e1a03000 	mov	r3, r0
    4354:	ebfffd23 	bl	0x37e8
    4358:	e1800003 	orr	r0, r0, r3
    435c:	e8bd8ff0 	pop	{r4, r5, r6, r7, r8, r9, sl, fp, pc}
    4360:	e92d407c 	push	{r2, r3, r4, r5, r6, lr}
    4364:	e59f0300 	ldr	r0, =0x466c
    4368:	e59f52e4 	ldr	r5, =0x4654
    436c:	e5901004 	ldr	r1, [r0, #4]
    4370:	e5902000 	ldr	r2, [r0]
    4374:	e3a00000 	mov	r0, #0
    4378:	e58d1004 	str	r1, [sp, #4]
    437c:	e58d2000 	str	r2, [sp]
    4380:	e5d51000 	ldrb	r1, [r5]
    4384:	e2411010 	sub	r1, r1, #16
    4388:	e3510010 	cmp	r1, #16
    438c:	2a00000d 	bcs	0x43c8
    4390:	e3a03000 	mov	r3, #0
    4394:	e1a0400d 	mov	r4, sp
    4398:	e5951004 	ldr	r1, [r5, #4]
    439c:	e7940103 	ldr	r0, [r4, r3, lsl #2]
    43a0:	e3800501 	orr	r0, r0, #4194304	; 0x400000
    43a4:	e5810024 	str	r0, [r1, #36]	; 0x24
    43a8:	ebfffd01 	bl	0x37b4
    43ac:	e1a06000 	mov	r6, r0
    43b0:	ebfffd0c 	bl	0x37e8
    43b4:	e1900006 	orrs	r0, r0, r6
    43b8:	1a000002 	bne	0x43c8
    43bc:	e2833001 	add	r3, r3, #1
    43c0:	e3530002 	cmp	r3, #2
    43c4:	3afffff3 	bcc	0x4398
    43c8:	e8bd807c 	pop	{r2, r3, r4, r5, r6, pc}
    43cc:	e92d43f8 	push	{r3, r4, r5, r6, r7, r8, r9, lr}
    43d0:	e1a06001 	mov	r6, r1
    43d4:	e59f8278 	ldr	r8, =0x4654
    43d8:	e3a09000 	mov	r9, #0
    43dc:	e5d81001 	ldrb	r1, [r8, #1]
    43e0:	e1560001 	cmp	r6, r1
    43e4:	83e00000 	mvnhi	r0, #0
    43e8:	8a00002c 	bhi	0x44a0
    43ec:	e59f127c 	ldr	r1, =0x4670
    43f0:	e1a0500d 	mov	r5, sp
    43f4:	e5d87000 	ldrb	r7, [r8]
    43f8:	e0814186 	add	r4, r1, r6, lsl #3
    43fc:	e59f1250 	ldr	r1, =0x4654
    4400:	e3570010 	cmp	r7, #16
    4404:	e5d12002 	ldrb	r2, [r1, #2]
    4408:	2a000025 	bcs	0x44a4
    440c:	e59f1260 	ldr	r1, =0x4674
    4410:	e3560000 	cmp	r6, #0
    4414:	e0810100 	add	r0, r1, r0, lsl #2
    4418:	059f1258 	ldreq	r1, [pc, #600]	; 0x4678
    441c:	0a00001c 	beq	0x4494
    4420:	e3a01000 	mov	r1, #0
    4424:	ea00000c 	b	0x445c
    4428:	e0843081 	add	r3, r4, r1, lsl #1
    442c:	e7d0c001 	ldrb	ip, [r0, r1]
    4430:	e15330b8 	ldrh	r3, [r3, #-8]
    4434:	e083300c 	add	r3, r3, ip
    4438:	e6bf3073 	sxth	r3, r3
    443c:	e35300ff 	cmp	r3, #255	; 0xff
    4440:	c3a030ff 	movgt	r3, #255	; 0xff
    4444:	ca000002 	bgt	0x4454
    4448:	e3530000 	cmp	r3, #0
    444c:	a20330ff 	andge	r3, r3, #255	; 0xff
    4450:	b3a03000 	movlt	r3, #0
    4454:	e7c53001 	strb	r3, [r5, r1]
    4458:	e2811001 	add	r1, r1, #1
    445c:	e1510002 	cmp	r1, r2
    4460:	3afffff0 	bcc	0x4428
    4464:	e3570000 	cmp	r7, #0
    4468:	13570001 	cmpne	r7, #1
    446c:	1a000006 	bne	0x448c
    4470:	e2461002 	sub	r1, r6, #2
    4474:	e3510004 	cmp	r1, #4
    4478:	e3a00000 	mov	r0, #0
    447c:	95cd0000 	strbls	r0, [sp]
    4480:	e3560005 	cmp	r6, #5
    4484:	13560006 	cmpne	r6, #6
    4488:	05cd0001 	strbeq	r0, [sp, #1]
    448c:	e1a0000d 	mov	r0, sp
    4490:	e59f11e0 	ldr	r1, =0x4678
    4494:	ebffff53 	bl	0x41e8
    4498:	e1a09000 	mov	r9, r0
    449c:	e1a00009 	mov	r0, r9
    44a0:	e8bd83f8 	pop	{r3, r4, r5, r6, r7, r8, r9, pc}
    44a4:	e2470010 	sub	r0, r7, #16
    44a8:	e3500010 	cmp	r0, #16
    44ac:	2a000015 	bcs	0x4508
    44b0:	ebfff742 	bl	0x21c0
    44b4:	e1a07000 	mov	r7, r0
    44b8:	e3a0000a 	mov	r0, #10
    44bc:	ebfff71d 	bl	0x2138
    44c0:	e3560001 	cmp	r6, #1
    44c4:	0bffffa5 	bleq	0x4360
    44c8:	e3a01000 	mov	r1, #0
    44cc:	e5d82002 	ldrb	r2, [r8, #2]
    44d0:	e1510002 	cmp	r1, r2
    44d4:	30840081 	addcc	r0, r4, r1, lsl #1
    44d8:	315030b8 	ldrhcc	r3, [r0, #-8]
    44dc:	32810001 	addcc	r0, r1, #1
    44e0:	37c53001 	strbcc	r3, [r5, r1]
    44e4:	31a01000 	movcc	r1, r0
    44e8:	3afffff8 	bcc	0x44d0
    44ec:	e1a0000d 	mov	r0, sp
    44f0:	e59f1180 	ldr	r1, =0x4678
    44f4:	ebffff3b 	bl	0x41e8
    44f8:	e1a09000 	mov	r9, r0
    44fc:	e1a00007 	mov	r0, r7
    4500:	ebfff70c 	bl	0x2138
    4504:	eaffffe4 	b	0x449c
    4508:	e2470020 	sub	r0, r7, #32
    450c:	e3500010 	cmp	r0, #16
    4510:	2affffe1 	bcs	0x449c
    4514:	e3a00000 	mov	r0, #0
    4518:	e1500002 	cmp	r0, r2
    451c:	30841080 	addcc	r1, r4, r0, lsl #1
    4520:	32803001 	addcc	r3, r0, #1
    4524:	31d110b0 	ldrhcc	r1, [r1]
    4528:	37c51000 	strbcc	r1, [r5, r0]
    452c:	31a00003 	movcc	r0, r3
    4530:	3afffff8 	bcc	0x4518
    4534:	eaffffd4 	b	0x448c
    4538:	e92d4ff0 	push	{r4, r5, r6, r7, r8, r9, sl, fp, lr}
    453c:	e1a05000 	mov	r5, r0
    4540:	e59f1134 	ldr	r1, =0x467c
    4544:	e24dd0e4 	sub	sp, sp, #228	; 0xe4
    4548:	e3a02030 	mov	r2, #48	; 0x30
    454c:	e28d00b4 	add	r0, sp, #180	; 0xb4
    4550:	eb00012f 	bl	0x4a14
    4554:	e59f1124 	ldr	r1, =0x4680
    4558:	e3a02030 	mov	r2, #48	; 0x30
    455c:	e28d0084 	add	r0, sp, #132	; 0x84
    4560:	eb00012b 	bl	0x4a14
    4564:	e59f0118 	ldr	r0, =0x4684
    4568:	e28d4078 	add	r4, sp, #120	; 0x78
    456c:	e890000e 	ldm	r0, {r1, r2, r3}
    4570:	e884000e 	stm	r4, {r1, r2, r3}
    4574:	e280100c 	add	r1, r0, #12
    4578:	e3a02078 	mov	r2, #120	; 0x78
    457c:	e1a0000d 	mov	r0, sp
    4580:	eb000123 	bl	0x4a14
    4584:	e59fc0c8 	ldr	ip, =0x4654
    4588:	e1a00825 	lsr	r0, r5, #16
    458c:	e20510ff 	and	r1, r5, #255	; 0xff
    4590:	e59f60d8 	ldr	r6, =0x4670
    4594:	e28c2014 	add	r2, ip, #20
    4598:	e3a030ad 	mov	r3, #173	; 0xad
    459c:	e5cc0000 	strb	r0, [ip]
    45a0:	e1a00425 	lsr	r0, r5, #8
    45a4:	e5cc0001 	strb	r0, [ip, #1]
    45a8:	e3a050ae 	mov	r5, #174	; 0xae
    45ac:	e5cc1002 	strb	r1, [ip, #2]
    45b0:	e3a070af 	mov	r7, #175	; 0xaf
    45b4:	e5dc0000 	ldrb	r0, [ip]
    45b8:	e3500000 	cmp	r0, #0
    45bc:	1a000016 	bne	0x461c
    45c0:	e3a000ac 	mov	r0, #172	; 0xac
    45c4:	e5c20000 	strb	r0, [r2]
    45c8:	e5c23001 	strb	r3, [r2, #1]
    45cc:	e5c25002 	strb	r5, [r2, #2]
    45d0:	e28d50b4 	add	r5, sp, #180	; 0xb4
    45d4:	e5c27003 	strb	r7, [r2, #3]
    45d8:	e3a02000 	mov	r2, #0
    45dc:	e5dc7001 	ldrb	r7, [ip, #1]
    45e0:	ea00000a 	b	0x4610
    45e4:	e3a00000 	mov	r0, #0
    45e8:	e0853182 	add	r3, r5, r2, lsl #3
    45ec:	e0864182 	add	r4, r6, r2, lsl #3
    45f0:	e1500001 	cmp	r0, r1
    45f4:	3083c080 	addcc	ip, r3, r0, lsl #1
    45f8:	3084e080 	addcc	lr, r4, r0, lsl #1
    45fc:	32800001 	addcc	r0, r0, #1
    4600:	31dcc0b0 	ldrhcc	ip, [ip]
    4604:	31cec0b0 	strhcc	ip, [lr]
    4608:	3afffff8 	bcc	0x45f0
    460c:	e2822001 	add	r2, r2, #1
    4610:	e1520007 	cmp	r2, r7
    4614:	3afffff2 	bcc	0x45e4
    4618:	ea00006c 	b	0x47d0
    461c:	e3500001 	cmp	r0, #1
    4620:	e3a0a0a7 	mov	sl, #167	; 0xa7
    4624:	e3a0e005 	mov	lr, #5
    4628:	e3a080a4 	mov	r8, #164	; 0xa4
    462c:	e3a090a5 	mov	r9, #165	; 0xa5
    4630:	1a000034 	bne	0x4708
    4634:	e5c2a000 	strb	sl, [r2]
    4638:	e28da084 	add	sl, sp, #132	; 0x84
    463c:	e5c23001 	strb	r3, [r2, #1]
    4640:	e5c25002 	strb	r5, [r2, #2]
    4644:	e5c27003 	strb	r7, [r2, #3]
    4648:	e3a02000 	mov	r2, #0
    464c:	e5dc7001 	ldrb	r7, [ip, #1]
    4650:	ea000017 	b	0x46b4

    4654:	00005b08
    4658:	7f077f07
    465c:	02800293
    4660:	02810293
    4664:	ffff0000
    4668:	01c03000
    466c:	0000597c
    4670:	00005bc4
    4674:	00005ba4
    4678:	00005b1c
    467c:	00005984
    4680:	000059b4
    4684:	000059e4

    4688:	e3a00000 	mov	r0, #0
    468c:	e08a5182 	add	r5, sl, r2, lsl #3
    4690:	e0864182 	add	r4, r6, r2, lsl #3
    4694:	e1500001 	cmp	r0, r1
    4698:	30853080 	addcc	r3, r5, r0, lsl #1
    469c:	3084b080 	addcc	fp, r4, r0, lsl #1
    46a0:	32800001 	addcc	r0, r0, #1
    46a4:	31d330b0 	ldrhcc	r3, [r3]
    46a8:	31cb30b0 	strhcc	r3, [fp]
    46ac:	3afffff8 	bcc	0x4694
    46b0:	e2822001 	add	r2, r2, #1
    46b4:	e1520007 	cmp	r2, r7
    46b8:	3afffff2 	bcc	0x4688
    46bc:	e5cce003 	strb	lr, [ip, #3]
    46c0:	e59f0210 	ldr	r0, =0x48d8
    46c4:	e3a010b0 	mov	r1, #176	; 0xb0
    46c8:	e5c08000 	strb	r8, [r0]
    46cc:	e5c09001 	strb	r9, [r0, #1]
    46d0:	e5c01002 	strb	r1, [r0, #2]
    46d4:	e3a010b1 	mov	r1, #177	; 0xb1
    46d8:	e5c01003 	strb	r1, [r0, #3]
    46dc:	e3a010c9 	mov	r1, #201	; 0xc9
    46e0:	e5c01004 	strb	r1, [r0, #4]
    46e4:	e2800008 	add	r0, r0, #8
    46e8:	e3a01025 	mov	r1, #37	; 0x25
    46ec:	e5c01000 	strb	r1, [r0]
    46f0:	e5c01001 	strb	r1, [r0, #1]
    46f4:	e5c01002 	strb	r1, [r0, #2]
    46f8:	e5c01003 	strb	r1, [r0, #3]
    46fc:	e3a01001 	mov	r1, #1
    4700:	e5c01004 	strb	r1, [r0, #4]
    4704:	ea000031 	b	0x47d0
    4708:	e3500010 	cmp	r0, #16
    470c:	1a000016 	bne	0x476c
    4710:	e3a00004 	mov	r0, #4
    4714:	e5c20000 	strb	r0, [r2]
    4718:	e3a00006 	mov	r0, #6
    471c:	e5c2e001 	strb	lr, [r2, #1]
    4720:	e5c20002 	strb	r0, [r2, #2]
    4724:	e3a00007 	mov	r0, #7
    4728:	e5c20003 	strb	r0, [r2, #3]
    472c:	e3a02000 	mov	r2, #0
    4730:	e5dc7001 	ldrb	r7, [ip, #1]
    4734:	ea000009 	b	0x4760
    4738:	e3a00000 	mov	r0, #0
    473c:	e0843082 	add	r3, r4, r2, lsl #1
    4740:	e0865182 	add	r5, r6, r2, lsl #3
    4744:	e1500001 	cmp	r0, r1
    4748:	31d3c0b0 	ldrhcc	ip, [r3]
    474c:	3085e080 	addcc	lr, r5, r0, lsl #1
    4750:	32800001 	addcc	r0, r0, #1
    4754:	31cec0b0 	strhcc	ip, [lr]
    4758:	3afffff9 	bcc	0x4744
    475c:	e2822001 	add	r2, r2, #1
    4760:	e1520007 	cmp	r2, r7
    4764:	3afffff3 	bcc	0x4738
    4768:	ea000018 	b	0x47d0
    476c:	e3500020 	cmp	r0, #32
    4770:	1a000016 	bne	0x47d0
    4774:	e5c2a000 	strb	sl, [r2]
    4778:	e5c28001 	strb	r8, [r2, #1]
    477c:	e3a000a6 	mov	r0, #166	; 0xa6
    4780:	e5c29002 	strb	r9, [r2, #2]
    4784:	e1a0500d 	mov	r5, sp
    4788:	e5c20003 	strb	r0, [r2, #3]
    478c:	e3a02000 	mov	r2, #0
    4790:	e5dc0001 	ldrb	r0, [ip, #1]
    4794:	e2807001 	add	r7, r0, #1
    4798:	ea00000a 	b	0x47c8
    479c:	e3a00000 	mov	r0, #0
    47a0:	e0863182 	add	r3, r6, r2, lsl #3
    47a4:	e0854182 	add	r4, r5, r2, lsl #3
    47a8:	e1500001 	cmp	r0, r1
    47ac:	3084c080 	addcc	ip, r4, r0, lsl #1
    47b0:	3083e080 	addcc	lr, r3, r0, lsl #1
    47b4:	32800001 	addcc	r0, r0, #1
    47b8:	31dcc0b0 	ldrhcc	ip, [ip]
    47bc:	31cec0b0 	strhcc	ip, [lr]
    47c0:	3afffff8 	bcc	0x47a8
    47c4:	e2822001 	add	r2, r2, #1
    47c8:	e1520007 	cmp	r2, r7
    47cc:	3afffff2 	bcc	0x479c
    47d0:	e28dd0e4 	add	sp, sp, #228	; 0xe4
    47d4:	e3a00000 	mov	r0, #0
    47d8:	e8bd8ff0 	pop	{r4, r5, r6, r7, r8, r9, sl, fp, pc}
    47dc:	e92d4070 	push	{r4, r5, r6, lr}
    47e0:	e1a05001 	mov	r5, r1
    47e4:	e51f6198 	ldr	r6, =0x4654
    47e8:	e5d61000 	ldrb	r1, [r6]
    47ec:	e3510010 	cmp	r1, #16
    47f0:	23a00000 	movcs	r0, #0
    47f4:	28bd8070 	popcs	{r4, r5, r6, pc}
    47f8:	e51f118c 	ldr	r1, =0x4674
    47fc:	e5d62002 	ldrb	r2, [r6, #2]
    4800:	e0814100 	add	r4, r1, r0, lsl #2
    4804:	e51f1194 	ldr	r1, =0x4678
    4808:	e1a00004 	mov	r0, r4
    480c:	ebfffe50 	bl	0x4154
    4810:	e3a01000 	mov	r1, #0
    4814:	e5d62002 	ldrb	r2, [r6, #2]
    4818:	e1510002 	cmp	r1, r2
    481c:	37d42001 	ldrbcc	r2, [r4, r1]
    4820:	37c52001 	strbcc	r2, [r5, r1]
    4824:	32811001 	addcc	r1, r1, #1
    4828:	3afffff9 	bcc	0x4814
    482c:	e8bd8070 	pop	{r4, r5, r6, pc}
    4830:	e92d0030 	push	{r4, r5}
    4834:	e1a02000 	mov	r2, r0
    4838:	e51f41ec 	ldr	r4, =0x4654
    483c:	e1a00001 	mov	r0, r1
    4840:	e5d41000 	ldrb	r1, [r4]
    4844:	e3510010 	cmp	r1, #16
    4848:	2a00000c 	bcs	0x4880
    484c:	e3a01000 	mov	r1, #0
    4850:	e51f31e4 	ldr	r3, =0x4674
    4854:	e0833102 	add	r3, r3, r2, lsl #2
    4858:	e5d42002 	ldrb	r2, [r4, #2]
    485c:	e1510002 	cmp	r1, r2
    4860:	37d32001 	ldrbcc	r2, [r3, r1]
    4864:	37c02001 	strbcc	r2, [r0, r1]
    4868:	32811001 	addcc	r1, r1, #1
    486c:	3afffff9 	bcc	0x4858
    4870:	e5d42002 	ldrb	r2, [r4, #2]
    4874:	e51f1204 	ldr	r1, =0x4678
    4878:	e1a00003 	mov	r0, r3
    487c:	ea00000f 	b	0x48c0
    4880:	e2411020 	sub	r1, r1, #32
    4884:	e3510010 	cmp	r1, #16
    4888:	23a00000 	movcs	r0, #0
    488c:	2a00000d 	bcs	0x48c8
    4890:	e51f5228 	ldr	r5, =0x4670
    4894:	e3a01000 	mov	r1, #0
    4898:	e5d42002 	ldrb	r2, [r4, #2]
    489c:	e1510002 	cmp	r1, r2
    48a0:	30852081 	addcc	r2, r5, r1, lsl #1
    48a4:	32813001 	addcc	r3, r1, #1
    48a8:	31d220b0 	ldrhcc	r2, [r2]
    48ac:	37c02001 	strbcc	r2, [r0, r1]
    48b0:	31a01003 	movcc	r1, r3
    48b4:	3afffff7 	bcc	0x4898
    48b8:	e5d42002 	ldrb	r2, [r4, #2]
    48bc:	e51f124c 	ldr	r1, =0x4678
    48c0:	e8bd0030 	pop	{r4, r5}
    48c4:	eafffe47 	b	0x41e8
    48c8:	e8bd0030 	pop	{r4, r5}
    48cc:	e12fff1e 	bx	lr
    48d0:	e3a00000 	mov	r0, #0
    48d4:	e12fff1e 	bx	lr

    48d8:	00005b20

    48dc:	e3a00000 	mov	r0, #0
    48e0:	ee110f10 	mrc	15, 0, r0, cr1, cr0, {0}
    48e4:	e3800004 	orr	r0, r0, #4
    48e8:	ee010f10 	mcr	15, 0, r0, cr1, cr0, {0}
    48ec:	e12fff1e 	bx	lr
    48f0:	e3a00000 	mov	r0, #0
    48f4:	ee110f10 	mrc	15, 0, r0, cr1, cr0, {0}
    48f8:	e3c00004 	bic	r0, r0, #4
    48fc:	ee010f10 	mcr	15, 0, r0, cr1, cr0, {0}
    4900:	e12fff1e 	bx	lr
    4904:	e3a00000 	mov	r0, #0
    4908:	ee110f10 	mrc	15, 0, r0, cr1, cr0, {0}
    490c:	e3800a01 	orr	r0, r0, #4096	; 0x1000
    4910:	ee010f10 	mcr	15, 0, r0, cr1, cr0, {0}
    4914:	e12fff1e 	bx	lr
    4918:	e3a00000 	mov	r0, #0
    491c:	ee110f10 	mrc	15, 0, r0, cr1, cr0, {0}
    4920:	e3c00a01 	bic	r0, r0, #4096	; 0x1000
    4924:	ee010f10 	mcr	15, 0, r0, cr1, cr0, {0}
    4928:	e12fff1e 	bx	lr
    492c:	e92d4070 	push	{r4, r5, r6, lr}
    4930:	e1a04000 	mov	r4, r0
    4934:	e1a05001 	mov	r5, r1
    4938:	e0841005 	add	r1, r4, r5
    493c:	e1a00004 	mov	r0, r4
    4940:	eb0002e0 	bl	0x54c8
    4944:	e8bd8070 	pop	{r4, r5, r6, pc}
    4948:	e92d4070 	push	{r4, r5, r6, lr}
    494c:	e1a04000 	mov	r4, r0
    4950:	e1a05001 	mov	r5, r1
    4954:	e0841005 	add	r1, r4, r5
    4958:	e1a00004 	mov	r0, r4
    495c:	eb0002d0 	bl	0x54a4
    4960:	e8bd8070 	pop	{r4, r5, r6, pc}
    4964:	e92d4070 	push	{r4, r5, r6, lr}
    4968:	e1a04000 	mov	r4, r0
    496c:	e1a05001 	mov	r5, r1
    4970:	e0841005 	add	r1, r4, r5
    4974:	e1a00004 	mov	r0, r4
    4978:	eb0002c9 	bl	0x54a4
    497c:	e8bd8070 	pop	{r4, r5, r6, pc}
    4980:	e12fff1e 	bx	lr
    4984:	e12fff1e 	bx	lr
    4988:	e12fff1e 	bx	lr
    498c:	e3520003 	cmp	r2, #3
    4990:	9a000017 	bls	0x49f4
    4994:	e210c003 	ands	ip, r0, #3
    4998:	0a000008 	beq	0x49c0
    499c:	e4d13001 	ldrb	r3, [r1], #1
    49a0:	e35c0002 	cmp	ip, #2
    49a4:	e082200c 	add	r2, r2, ip
    49a8:	94d1c001 	ldrbls	ip, [r1], #1
    49ac:	e4c03001 	strb	r3, [r0], #1
    49b0:	34d13001 	ldrbcc	r3, [r1], #1
    49b4:	94c0c001 	strbls	ip, [r0], #1
    49b8:	e2422004 	sub	r2, r2, #4
    49bc:	34c03001 	strbcc	r3, [r0], #1
    49c0:	e2113003 	ands	r3, r1, #3
    49c4:	0a000012 	beq	0x4a14
    49c8:	e2522008 	subs	r2, r2, #8
    49cc:	3a000004 	bcc	0x49e4
    49d0:	e4913004 	ldr	r3, [r1], #4
    49d4:	e491c004 	ldr	ip, [r1], #4
    49d8:	e4803004 	str	r3, [r0], #4
    49dc:	e480c004 	str	ip, [r0], #4
    49e0:	eafffff8 	b	0x49c8
    49e4:	e2922004 	adds	r2, r2, #4
    49e8:	54913004 	ldrpl	r3, [r1], #4
    49ec:	54803004 	strpl	r3, [r0], #4
    49f0:	e1a00000 	nop			; (mov r0, r0)
    49f4:	e1b02f82 	lsls	r2, r2, #31
    49f8:	24d13001 	ldrbcs	r3, [r1], #1
    49fc:	24d1c001 	ldrbcs	ip, [r1], #1
    4a00:	44d12001 	ldrbmi	r2, [r1], #1
    4a04:	24c03001 	strbcs	r3, [r0], #1
    4a08:	24c0c001 	strbcs	ip, [r0], #1
    4a0c:	44c02001 	strbmi	r2, [r0], #1
    4a10:	e12fff1e 	bx	lr

    4a14:	e92d41f0 	push	{r4, r5, r6, r7, r8, lr}
    4a18:	e2522020 	subs	r2, r2, #32
    4a1c:	3a00000d 	bcc	0x4a58
    4a20:	e3520e12 	cmp	r2, #288	; 0x120
    4a24:	3a000007 	bcc	0x4a48
    4a28:	f5d1f100 	pld	[r1, #256]	; 0x100
    4a2c:	e8b151f8 	ldm	r1!, {r3, r4, r5, r6, r7, r8, ip, lr}
    4a30:	e2422040 	sub	r2, r2, #64	; 0x40
    4a34:	e3520e12 	cmp	r2, #288	; 0x120
    4a38:	e8a051f8 	stmia	r0!, {r3, r4, r5, r6, r7, r8, ip, lr}
    4a3c:	e8b151f8 	ldm	r1!, {r3, r4, r5, r6, r7, r8, ip, lr}
    4a40:	e8a051f8 	stmia	r0!, {r3, r4, r5, r6, r7, r8, ip, lr}
    4a44:	2afffff7 	bcs	0x4a28
    4a48:	e8b151f8 	ldm	r1!, {r3, r4, r5, r6, r7, r8, ip, lr}
    4a4c:	e2522020 	subs	r2, r2, #32
    4a50:	e8a051f8 	stmia	r0!, {r3, r4, r5, r6, r7, r8, ip, lr}
    4a54:	2afffffb 	bcs	0x4a48
    4a58:	e1b0ce02 	lsls	ip, r2, #28
    4a5c:	28b15018 	ldmcs	r1!, {r3, r4, ip, lr}
    4a60:	28a05018 	stmiacs	r0!, {r3, r4, ip, lr}
    4a64:	48b10018 	ldmmi	r1!, {r3, r4}
    4a68:	48a00018 	stmiami	r0!, {r3, r4}
    4a6c:	e8bd41f0 	pop	{r4, r5, r6, r7, r8, lr}

    4a70:	e1b0cf02 	lsls	ip, r2, #30
    4a74:	24913004 	ldrcs	r3, [r1], #4
    4a78:	24803004 	strcs	r3, [r0], #4
    4a7c:	012fff1e 	bxeq	lr
    4a80:	e1b02f82 	lsls	r2, r2, #31
    4a84:	20d130b2 	ldrhcs	r3, [r1], #2
    4a88:	44d12001 	ldrbmi	r2, [r1], #1
    4a8c:	20c030b2 	strhcs	r3, [r0], #2
    4a90:	44c02001 	strbmi	r2, [r0], #1
    4a94:	e12fff1e 	bx	lr
    4a98:	e1903001 	orrs	r3, r0, r1
    4a9c:	4a000021 	bmi	0x4b28
    4aa0:	e3b02000 	movs	r2, #0
    4aa4:	e07130a0 	rsbs	r3, r1, r0, lsr #1
    4aa8:	3a00001a 	bcc	0x4b18
    4aac:	e0713220 	rsbs	r3, r1, r0, lsr #4
    4ab0:	3a00000f 	bcc	0x4af4
    4ab4:	e0713420 	rsbs	r3, r1, r0, lsr #8
    4ab8:	3a000001 	bcc	0x4ac4
    4abc:	e3a0c000 	mov	ip, #0
    4ac0:	ea000020 	b	0x4b48
    4ac4:	e07133a0 	rsbs	r3, r1, r0, lsr #7
    4ac8:	20400381 	subcs	r0, r0, r1, lsl #7
    4acc:	e0b22002 	adcs	r2, r2, r2
    4ad0:	e0713320 	rsbs	r3, r1, r0, lsr #6
    4ad4:	20400301 	subcs	r0, r0, r1, lsl #6
    4ad8:	e0b22002 	adcs	r2, r2, r2
    4adc:	e07132a0 	rsbs	r3, r1, r0, lsr #5
    4ae0:	20400281 	subcs	r0, r0, r1, lsl #5
    4ae4:	e0b22002 	adcs	r2, r2, r2
    4ae8:	e0713220 	rsbs	r3, r1, r0, lsr #4
    4aec:	20400201 	subcs	r0, r0, r1, lsl #4
    4af0:	e0b22002 	adcs	r2, r2, r2
    4af4:	e07131a0 	rsbs	r3, r1, r0, lsr #3
    4af8:	20400181 	subcs	r0, r0, r1, lsl #3
    4afc:	e0b22002 	adcs	r2, r2, r2
    4b00:	e0713120 	rsbs	r3, r1, r0, lsr #2
    4b04:	20400101 	subcs	r0, r0, r1, lsl #2
    4b08:	e0b22002 	adcs	r2, r2, r2
    4b0c:	e07130a0 	rsbs	r3, r1, r0, lsr #1
    4b10:	20400081 	subcs	r0, r0, r1, lsl #1
    4b14:	e0b22002 	adcs	r2, r2, r2
    4b18:	e0501001 	subs	r1, r0, r1
    4b1c:	31a01000 	movcc	r1, r0
    4b20:	e0a20002 	adc	r0, r2, r2
    4b24:	e12fff1e 	bx	lr
    4b28:	e2112102 	ands	r2, r1, #-2147483648	; 0x80000000
    4b2c:	42611000 	rsbmi	r1, r1, #0
    4b30:	e032c040 	eors	ip, r2, r0, asr #32
    4b34:	22600000 	rsbcs	r0, r0, #0
    4b38:	e0713220 	rsbs	r3, r1, r0, lsr #4
    4b3c:	3a00001d 	bcc	0x4bb8
    4b40:	e0713420 	rsbs	r3, r1, r0, lsr #8
    4b44:	3a00000f 	bcc	0x4b88
    4b48:	e1a01301 	lsl	r1, r1, #6
    4b4c:	e0713420 	rsbs	r3, r1, r0, lsr #8
    4b50:	e382233f 	orr	r2, r2, #-67108864	; 0xfc000000
    4b54:	3a00000b 	bcc	0x4b88
    4b58:	e1a01301 	lsl	r1, r1, #6
    4b5c:	e0713420 	rsbs	r3, r1, r0, lsr #8
    4b60:	e382263f 	orr	r2, r2, #66060288	; 0x3f00000
    4b64:	3a000007 	bcc	0x4b88
    4b68:	e1a01301 	lsl	r1, r1, #6
    4b6c:	e0713420 	rsbs	r3, r1, r0, lsr #8
    4b70:	e382293f 	orr	r2, r2, #1032192	; 0xfc000
    4b74:	21a01301 	lslcs	r1, r1, #6
    4b78:	23822c3f 	orrcs	r2, r2, #16128	; 0x3f00
    4b7c:	e2713000 	rsbs	r3, r1, #0
    4b80:	2a00001d 	bcs	0x4bfc
    4b84:	21a01321 	lsrcs	r1, r1, #6
    4b88:	e07133a0 	rsbs	r3, r1, r0, lsr #7
    4b8c:	20400381 	subcs	r0, r0, r1, lsl #7
    4b90:	e0b22002 	adcs	r2, r2, r2
    4b94:	e0713320 	rsbs	r3, r1, r0, lsr #6
    4b98:	20400301 	subcs	r0, r0, r1, lsl #6
    4b9c:	e0b22002 	adcs	r2, r2, r2
    4ba0:	e07132a0 	rsbs	r3, r1, r0, lsr #5
    4ba4:	20400281 	subcs	r0, r0, r1, lsl #5
    4ba8:	e0b22002 	adcs	r2, r2, r2
    4bac:	e0713220 	rsbs	r3, r1, r0, lsr #4
    4bb0:	20400201 	subcs	r0, r0, r1, lsl #4
    4bb4:	e0b22002 	adcs	r2, r2, r2
    4bb8:	e07131a0 	rsbs	r3, r1, r0, lsr #3
    4bbc:	20400181 	subcs	r0, r0, r1, lsl #3
    4bc0:	e0b22002 	adcs	r2, r2, r2
    4bc4:	e0713120 	rsbs	r3, r1, r0, lsr #2
    4bc8:	20400101 	subcs	r0, r0, r1, lsl #2
    4bcc:	e0b22002 	adcs	r2, r2, r2
    4bd0:	2affffeb 	bcs	0x4b84
    4bd4:	e07130a0 	rsbs	r3, r1, r0, lsr #1
    4bd8:	20400081 	subcs	r0, r0, r1, lsl #1
    4bdc:	e0b22002 	adcs	r2, r2, r2
    4be0:	e0501001 	subs	r1, r0, r1
    4be4:	31a01000 	movcc	r1, r0
    4be8:	e0a20002 	adc	r0, r2, r2
    4bec:	e1b0cfcc 	asrs	ip, ip, #31
    4bf0:	42600000 	rsbmi	r0, r0, #0
    4bf4:	22611000 	rsbcs	r1, r1, #0
    4bf8:	e12fff1e 	bx	lr
    4bfc:	e1b0cfcc 	asrs	ip, ip, #31
    4c00:	42600000 	rsbmi	r0, r0, #0
    4c04:	e92d4001 	push	{r0, lr}
    4c08:	e3b00000 	movs	r0, #0
    4c0c:	e1a00000 	nop			; (mov r0, r0)
    4c10:	e8bd8002 	pop	{r1, pc}

    4c14:	e3b02000 	movs	r2, #0
    4c18:	e0713220 	rsbs	r3, r1, r0, lsr #4
    4c1c:	3affffb4 	bcc	0x4af4
    4c20:	e0713420 	rsbs	r3, r1, r0, lsr #8
    4c24:	3affffa6 	bcc	0x4ac4
    4c28:	e3a0c000 	mov	ip, #0
    4c2c:	eaffffc5 	b	0x4b48

sdelay:
    4c30:	e3a01000 	mov	r1, #0
    4c34:	ea000000 	b	0x4c3c
    4c38:	e2811001 	add	r1, r1, #1
    4c3c:	e1510000 	cmp	r1, r0
    4c40:	3afffffc 	bcc	0x4c38
    4c44:	e12fff1e 	bx	lr

mctl_ddr3_reset(void):
    4c48:	e52de004 	push	{lr}		; (str lr, [sp, #-4]!)
    4c4c:	e59f06cc 	ldr	r0, =DRAMC_IO_BASE
    4c50:	e5903230 	ldr	r3, [r0, #SDR_CR]
    4c54:	e3c33a01 	bic	r3, r3, #(0x1<<12)
    4c58:	e5803230 	str	r3, [r0, #SDR_CR]
    4c5c:	e3a00c01 	mov	r0, #0x100
    4c60:	ebfffff2 	bl	sdelay
    4c64:	e59f06b4 	ldr	r0, =DRAMC_IO_BASE
    4c68:	e5903230 	ldr	r3, [r0, #SDR_CR]
    4c6c:	e3833a01 	orr	r3, r3, #(0x1<<12)
    4c70:	e5803230 	str	r3, [r0, #SDR_CR]
    4c74:	e49df004 	pop	{pc}		; (ldr pc, [sp], #4)

mctl_set_drive(void):
    4c78:	e59f16a0 	ldr	r1, =DRAMC_IO_BASE
    4c7c:	e5910230 	ldr	r0, [r1, #SDR_CR]
    4c80:	e3800a06 	orr	r0, r0, #(6<<12)
    4c84:	e3001ffc 	movw	r1, #0xffc
    4c88:	e1800001 	orr	r0, r0, r1
    4c8c:	e3c00003 	bic	r0, r0, #3
    4c90:	e59f1688 	ldr	r1, =DRAMC_IO_BASE
    4c94:	e5810230 	str	r0, [r1, #SDR_CR]
    4c98:	e12fff1e 	bx	lr

mctl_itm_disable
    4c9c:	e3a00000 	mov	r0, #0
    4ca0:	e59f1678 	ldr	r1, =DRAMC_IO_BASE
    4ca4:	e5910000 	ldr	r0, [r1, #SDR_CCR]	
    4ca8:	e3800201 	orr	r0, r0, #(1<<28)
    4cac:	e5810000 	str	r0, [r1, #SDR_CCR]
    4cb0:	e12fff1e 	bx	lr

mctl_itm_enable
    4cb4:	e3a00000 	mov	r0, #0
    4cb8:	e59f1660 	ldr	r1, =DRAMC_IO_BASE
    4cbc:	e5910000 	ldr	r0, [r1, #SDR_CCR]
    4cc0:	e3c00201 	bic	r0, r0, #(1<<28)
    4cc4:	e5810000 	str	r0, [r1, #SDR_CCR]
    4cc8:	e12fff1e 	bx	lr
    4ccc:	e52de004 	push	{lr}		; (str lr, [sp, #-4]!)

mctl_enable_ddl0
    4cd0:	e59f0648 	ldr	r0, =DRAMC_IO_BASE
    4cd4:	e5900204 	ldr	r0, [r0, #SDR_DLLCR0]	; 0x204
    4cd8:	e3c00101 	bic	r0, r0, #0x40000000
    4cdc:	e3800102 	orr	r0, r0, #0x80000000
    4ce0:	e59f1638 	ldr	r1, =DRAMC_IO_BASE
    4ce4:	e5810204 	str	r0, [r1, #SDR_DLLCR0]	; 0x204
    4ce8:	e3a00c01 	mov	r0, #256	; 0x100
    4cec:	ebffffcf 	bl	sdelay
    4cf0:	e59f0628 	ldr	r0, =DRAMC_IO_BASE
    4cf4:	e5900204 	ldr	r0, [r0, #SDR_DLLCR0]	; 0x204
    4cf8:	e3c00103 	bic	r0, r0, #0xc0000000
    4cfc:	e59f161c 	ldr	r1, =DRAMC_IO_BASE
    4d00:	e5810204 	str	r0, [r1, #SDR_DLLCR0]	; 0x204
    4d04:	e3a00a01 	mov	r0, #0x1000
    4d08:	ebffffc8 	bl	sdelay
    4d0c:	e59f060c 	ldr	r0, =DRAMC_IO_BASE
    4d10:	e5900204 	ldr	r0, [r0, #SDR_DLLCR0]	; 0x204
    4d14:	e3c00102 	bic	r0, r0, #0x80000000
    4d18:	e3800101 	orr	r0, r0, #0x40000000
    4d1c:	e59f15fc 	ldr	r1, =DRAMC_IO_BASE
    4d20:	e5810204 	str	r0, [r1, #SDR_DLLCR0]	; 0x204
    4d24:	e3a00a01 	mov	r0, #0x1000
    4d28:	ebffffc0 	bl	sdelay
    4d2c:	e49df004 	pop	{pc}		; (ldr pc, [sp], #4)

mctl_enable_dllx
    4d30:	e92d4030 	push	{r4, r5, lr}
    4d34:	e3a03000 	mov	r3, #0
    4d38:	e59f05e0 	ldr	r0, =DRAMC_IO_BASE
    4d3c:	e5904004 	ldr	r4, [r0, #SRD_DCR]
    4d40:	e1a04324 	lsr	r4, r4, #6
    4d44:	e2044007 	and	r4, r4, #7
    4d48:	e3540003 	cmp	r4, #3
    4d4c:	1a000001 	bne	0x4d58
    4d50:	e3a05005 	mov	r5, #5
    4d54:	ea000000 	b	0x4d5c
    4d58:	e3a05003 	mov	r5, #3
    4d5c:	e3a03001 	mov	r3, #1
    4d60:	ea000008 	b	0x4d88
    4d64:	e59f05b4 	ldr	r0, =DRAMC_IO_BASE
    4d68:	e0800103 	add	r0, r0, r3, lsl #2
    4d6c:	e5900204 	ldr	r0, [r0, #SDR_DLLCR0]	; 0x204
    4d70:	e3c00101 	bic	r0, r0, #0x40000000
    4d74:	e3800102 	orr	r0, r0, #0x80000000
    4d78:	e59f15a0 	ldr	r1, =DRAMC_IO_BASE
    4d7c:	e0811103 	add	r1, r1, r3, lsl #2
    4d80:	e5810204 	str	r0, [r1, #SDR_DLLCR0]	; 0x204
    4d84:	e2833001 	add	r3, r3, #1
    4d88:	e1530005 	cmp	r3, r5
    4d8c:	3afffff4 	bcc	0x4d64
    4d90:	e3a00c01 	mov	r0, #0x100
    4d94:	ebffffa5 	bl	sdelay
    4d98:	e3a03001 	mov	r3, #1
    4d9c:	ea000007 	b	0x4dc0
    4da0:	e59f0578 	ldr	r0, =DRAMC_IO_BASE
    4da4:	e0800103 	add	r0, r0, r3, lsl #2
    4da8:	e5900204 	ldr	r0, [r0, #SDR_DLLCR0]	; 0x204
    4dac:	e3c00103 	bic	r0, r0, #0xc0000000
    4db0:	e59f1568 	ldr	r1, =DRAMC_IO_BASE
    4db4:	e0811103 	add	r1, r1, r3, lsl #2
    4db8:	e5810204 	str	r0, [r1, #SDR_DLLCR0]	; 0x204
    4dbc:	e2833001 	add	r3, r3, #1
    4dc0:	e1530005 	cmp	r3, r5
    4dc4:	3afffff5 	bcc	0x4da0
    4dc8:	e3a00a01 	mov	r0, #0x1000
    4dcc:	ebffff97 	bl	sdelay
    4dd0:	e3a03001 	mov	r3, #1
    4dd4:	ea000008 	b	0x4dfc
    4dd8:	e59f0540 	ldr	r0, =DRAMC_IO_BASE
    4ddc:	e0800103 	add	r0, r0, r3, lsl #2
    4de0:	e5900204 	ldr	r0, [r0, #SDR_DLLCR0]	; 0x204
    4de4:	e3c00102 	bic	r0, r0, #0x80000000
    4de8:	e3800101 	orr	r0, r0, #0x40000000
    4dec:	e59f152c 	ldr	r1, =DRAMC_IO_BASE
    4df0:	e0811103 	add	r1, r1, r3, lsl #2
    4df4:	e5810204 	str	r0, [r1, #SDR_DLLCR0]	; 0x204
    4df8:	e2833001 	add	r3, r3, #1
    4dfc:	e1530005 	cmp	r3, r5
    4e00:	3afffff4 	bcc	0x4dd8
    4e04:	e3a00a01 	mov	r0, #4096	; 0x1000
    4e08:	ebffff88 	bl	sdelay
    4e0c:	e8bd8030 	pop	{r4, r5, pc}

mctl_disable_dll
    4e10:	e59f1508 	ldr	r1, =DRAMC_IO_BASE
    4e14:	e5910204 	ldr	r0, [r1, #SDR_DLLCR0]	; 0x204
    4e18:	e3c00101 	bic	r0, r0, #0x40000000
    4e1c:	e3800102 	orr	r0, r0, #0x80000000
    4e20:	e5810204 	str	r0, [r1, #SDR_DLLCR0]	; 0x204
    4e24:	e5910208 	ldr	r0, [r1, #SDR_DDLCR1]	; 0x208
    4e28:	e3c00101 	bic	r0, r0, #0x40000000
    4e2c:	e3800102 	orr	r0, r0, #0x80000000
    4e30:	e5810208 	str	r0, [r1, #SDR_DLLCR1]	; 0x208
    4e34:	e591020c 	ldr	r0, [r1, #SDR_DLLCR2]	; 0x20c
    4e38:	e3c00101 	bic	r0, r0, #0x40000000
    4e3c:	e3800102 	orr	r0, r0, #0x80000000
    4e40:	e581020c 	str	r0, [r1, #SDR_DLLCR2]	; 0x20c
    4e44:	e5910210 	ldr	r0, [r1, #SDR_DLLCR3]	; 0x210
    4e48:	e3c00101 	bic	r0, r0, #0x40000000
    4e4c:	e3800102 	orr	r0, r0, #0x80000000
    4e50:	e5810210 	str	r0, [r1, #SDR_DLLCR3]	; 0x210
    4e54:	e5910214 	ldr	r0, [r1, #SDR_DLLCR4]	; 0x214
    4e58:	e3c00101 	bic	r0, r0, #0x40000000
    4e5c:	e3800102 	orr	r0, r0, #0x80000000
    4e60:	e5810214 	str	r0, [r1, #SDR_DLLCR4]	; 0x214
    4e64:	e12fff1e 	bx	lr

mctl_configure_hostport
    4e68:	e92d4010 	push	{r4, lr}
    4e6c:	e24dd080 	sub	sp, sp, #128	; 0x80
    4e70:	e3a02080 	mov	r2, #128	; 0x80
    4e74:	e59f14a8 	ldr	r1, =hpcr_value
    4e78:	e1a0000d 	mov	r0, sp
    4e7c:	ebfffee4 	bl	0x4a14
    4e80:	e3a04000 	mov	r4, #0
    4e84:	ea000004 	b	0x4e9c
    4e88:	e79d0104 	ldr	r0, [sp, r4, lsl #2]
    4e8c:	e59f148c 	ldr	r1, =DRAMC_IO_BASE
    4e90:	e0811104 	add	r1, r1, r4, lsl #2
    4e94:	e5810250 	str	r0, [r1, #SDR_HPCR]	; 0x250
    4e98:	e2844001 	add	r4, r4, #1
    4e9c:	e3540020 	cmp	r4, #32
    4ea0:	3afffff8 	bcc	0x4e88
    4ea4:	e28dd080 	add	sp, sp, #128	; 0x80
    4ea8:	e8bd8010 	pop	{r4, pc}

    4eac:	e92d4070 	push	{r4, r5, r6, lr}
    4eb0:	e1a04000 	mov	r4, r0
    4eb4:	e59f046c 	ldr	r0, =CCM_IO_BASE
    4eb8:	e5905020 	ldr	r5, [r0, #32]
    4ebc:	e3c55003 	bic	r5, r5, #3
    4ec0:	e3855001 	orr	r5, r5, #1
    4ec4:	e3c55030 	bic	r5, r5, #48	; 0x30
    4ec8:	e3855010 	orr	r5, r5, #16
    4ecc:	e3c55c1f 	bic	r5, r5, #7936	; 0x1f00
    4ed0:	e3a01018 	mov	r1, #24
    4ed4:	e1a00004 	mov	r0, r4
    4ed8:	ebffff4d 	bl	0x4c14
    4edc:	e200001f 	and	r0, r0, #31
    4ee0:	e1855400 	orr	r5, r5, r0, lsl #8
    4ee4:	e3c55803 	bic	r5, r5, #196608	; 0x30000
    4ee8:	e3855801 	orr	r5, r5, #65536	; 0x10000
    4eec:	e3c55202 	bic	r5, r5, #536870912	; 0x20000000
    4ef0:	e3855102 	orr	r5, r5, #-2147483648	; 0x80000000
    4ef4:	e59f042c 	ldr	r0, =CCM_IO_BASE
    4ef8:	e5805020 	str	r5, [r0, #32]
    4efc:	e3a00601 	mov	r0, #1048576	; 0x100000
    4f00:	ebffff4a 	bl	sdelay
    4f04:	e59f041c 	ldr	r0, =CCM_IO_BASE
    4f08:	e5905020 	ldr	r5, [r0, #32]
    4f0c:	e3855202 	orr	r5, r5, #536870912	; 0x20000000
    4f10:	e5805020 	str	r5, [r0, #32]
    4f14:	e59f5410 	ldr	r5, =0x532c
    4f18:	e580515c 	str	r5, [r0, #348]	; 0x15c
    4f1c:	e5905060 	ldr	r5, [r0, #96]	; 0x60
    4f20:	e3c55903 	bic	r5, r5, #49152	; 0xc000
    4f24:	e5805060 	str	r5, [r0, #96]	; 0x60
    4f28:	e3a00a01 	mov	r0, #4096	; 0x1000
    4f2c:	ebffff3f 	bl	sdelay
    4f30:	e3855903 	orr	r5, r5, #49152	; 0xc000
    4f34:	e59f03ec 	ldr	r0, =CCM_IO_BASE
    4f38:	e5805060 	str	r5, [r0, #96]	; 0x60
    4f3c:	e3a00a01 	mov	r0, #4096	; 0x1000
    4f40:	ebffff3a 	bl	sdelay
    4f44:	e8bd8070 	pop	{r4, r5, r6, pc}

DRAMC_get_dram_size
    4f48:	e59f33d0 	ldr	r3, =DRAMC_IO_BASE
    4f4c:	e5931004 	ldr	r1, [r3, #SDR_DCR]
    4f50:	e7e221d1 	ubfx	r2, r1, #3, #3
    4f54:	e3520000 	cmp	r2, #0
    4f58:	1a000001 	bne	0x4f64
    4f5c:	e3a00020 	mov	r0, #32
    4f60:	ea000010 	b	0x4fa8
    4f64:	e3520001 	cmp	r2, #1
    4f68:	1a000001 	bne	0x4f74
    4f6c:	e3a00040 	mov	r0, #64	; 0x40
    4f70:	ea00000c 	b	0x4fa8
    4f74:	e3520002 	cmp	r2, #2
    4f78:	1a000001 	bne	0x4f84
    4f7c:	e3a00080 	mov	r0, #128	; 0x80
    4f80:	ea000008 	b	0x4fa8
    4f84:	e3520003 	cmp	r2, #3
    4f88:	1a000001 	bne	0x4f94
    4f8c:	e3a00c01 	mov	r0, #256	; 0x100
    4f90:	ea000004 	b	0x4fa8
    4f94:	e3520004 	cmp	r2, #4
    4f98:	1a000001 	bne	0x4fa4
    4f9c:	e3a00c02 	mov	r0, #512	; 0x200
    4fa0:	ea000000 	b	0x4fa8
    4fa4:	e3a00b01 	mov	r0, #1024	; 0x400
    4fa8:	e7e130d1 	ubfx	r3, r1, #1, #2
    4fac:	e3530001 	cmp	r3, #1
    4fb0:	1a000000 	bne	0x4fb8
    4fb4:	e1a00080 	lsl	r0, r0, #1
    4fb8:	e7e23351 	ubfx	r3, r1, #6, #3
    4fbc:	e3530003 	cmp	r3, #3
    4fc0:	1a000000 	bne	0x4fc8
    4fc4:	e1a00080 	lsl	r0, r0, #1
    4fc8:	e7e13551 	ubfx	r3, r1, #10, #2
    4fcc:	e3530001 	cmp	r3, #1
    4fd0:	1a000000 	bne	0x4fd8
    4fd4:	e1a00080 	lsl	r0, r0, #1
    4fd8:	e12fff1e 	bx	lr

DRAMC_scan_readpipe
    4fdc:	e59f033c 	ldr	r0, =DRAMC_IO_BASE
    4fe0:	e5901000 	ldr	r1, [r0, #SDR_CCR]
    4fe4:	e3811101 	orr	r1, r1, #0x40000000
    4fe8:	e5801000 	str	r1, [r0, #SDR_CCR]
    4fec:	e320f000 	nop	{0}
    4ff0:	e59f0328 	ldr	r0, =DRAMC_IO_BASE
    4ff4:	e5900000 	ldr	r0, [r0, #SDR_CCR]
    4ff8:	e3100101 	tst	r0, #0x40000000
    4ffc:	1afffffb 	bne	0x4ff0
    5000:	e59f0318 	ldr	r0, =DRAMC_IO_BASE
    5004:	e590100c 	ldr	r1, [r0, #SDR_CSR]
    5008:	e3110601 	tst	r1, #0x100000
    500c:	0a000001 	beq	0x5018
    5010:	e3e00000 	mvn	r0, #0
    5014:	e12fff1e 	bx	lr
    5018:	e3a00000 	mov	r0, #0
    501c:	eafffffc 	b	0x5014

    5020:	e3a01083 	mov	r1, #131	; 0x83
    5024:	e3013f33 	movw	r3, #7987	; 0x1f33
    5028:	e0030390 	mul	r3, r0, r3
    502c:	e1a02523 	lsr	r2, r3, #10
    5030:	e0823182 	add	r3, r2, r2, lsl #3
    5034:	e24320c8 	sub	r2, r3, #200	; 0xc8
    5038:	e1811402 	orr	r1, r1, r2, lsl #8
    503c:	e3811302 	orr	r1, r1, #0x8000000
    5040:	e59f32d8 	ldr	r3, =DRAMC_IO_BASE
    5044:	e5831010 	str	r1, [r3, #SDR_DRR]
    5048:	e12fff1e 	bx	lr
    504c:	e59f22cc 	ldr	r2, =DRAMC_IO_BASE
    5050:	e5921230 	ldr	r1, [r2, #SDR_CR]
    5054:	e3500000 	cmp	r0, #0
    5058:	0a000001 	beq	0x5064
    505c:	e3811801 	orr	r1, r1, #0x10000
    5060:	ea000000 	b	0x5068
    5064:	e3c11801 	bic	r1, r1, #0x10000
    5068:	e59f22b0 	ldr	r2, =DRAMC_IO_BASE
    506c:	e5821230 	str	r1, [r2, SDR_CR]
    5070:	e12fff1e 	bx	lr

DRAMC_init:
    5074:	e92d4070 	push	{r4, r5, r6, lr}
    5078:	e1a04000 	mov	r4, r0
    507c:	e3540000 	cmp	r4, #0
    5080:	1a000001 	bne	0x508c
    5084:	e3e00000 	mvn	r0, #0
    5088:	e8bd8070 	pop	{r4, r5, r6, pc}
    508c:	e5940004 	ldr	r0, [r4, #4]
    5090:	ebffff85 	bl	0x4eac
    5094:	e3a00000 	mov	r0, #0
    5098:	e59f1280 	ldr	r1, =DRAMC_IO_BASE
    509c:	e581023c 	str	r0, [r1, #SDR_0x23c]
    50a0:	ebfffee8 	bl	0x4c48
    50a4:	ebfffef3 	bl	0x4c78
    50a8:	e3a00000 	mov	r0, #0
    50ac:	ebffffe6 	bl	0x504c
    50b0:	ebfffef9 	bl	0x4c9c
    50b4:	ebffff04 	bl	0x4ccc
    50b8:	e3a06000 	mov	r6, #0
    50bc:	e5940008 	ldr	r0, [r4, #8]
    50c0:	e3500003 	cmp	r0, #3
    50c4:	1a000000 	bne	0x50cc
    50c8:	e3866001 	orr	r6, r6, #1
    50cc:	e5940014 	ldr	r0, [r4, #20]
    50d0:	e1a001a0 	lsr	r0, r0, #3
    50d4:	e1866080 	orr	r6, r6, r0, lsl #1
    50d8:	e5940010 	ldr	r0, [r4, #16]
    50dc:	e3500c01 	cmp	r0, #256	; 0x100
    50e0:	1a000000 	bne	0x50e8
    50e4:	ea000019 	b	0x5150
    50e8:	e5940010 	ldr	r0, [r4, #16]
    50ec:	e3500c02 	cmp	r0, #512	; 0x200
    50f0:	1a000001 	bne	0x50fc
    50f4:	e3866008 	orr	r6, r6, #8
    50f8:	ea000014 	b	0x5150
    50fc:	e5940010 	ldr	r0, [r4, #16]
    5100:	e3500b01 	cmp	r0, #1024	; 0x400
    5104:	1a000001 	bne	0x5110
    5108:	e3866010 	orr	r6, r6, #16
    510c:	ea00000f 	b	0x5150
    5110:	e5940010 	ldr	r0, [r4, #16]
    5114:	e3500b02 	cmp	r0, #2048	; 0x800
    5118:	1a000001 	bne	0x5124
    511c:	e3866018 	orr	r6, r6, #24
    5120:	ea00000a 	b	0x5150
    5124:	e5940010 	ldr	r0, [r4, #16]
    5128:	e3500a01 	cmp	r0, #4096	; 0x1000
    512c:	1a000001 	bne	0x5138
    5130:	e3866020 	orr	r6, r6, #32
    5134:	ea000005 	b	0x5150
    5138:	e5940010 	ldr	r0, [r4, #16]
    513c:	e3500a02 	cmp	r0, #8192	; 0x2000
    5140:	1a000001 	bne	0x514c
    5144:	e3866028 	orr	r6, r6, #40	; 0x28
    5148:	ea000000 	b	0x5150
    514c:	e320f000 	nop	{0}
    5150:	e3a01001 	mov	r1, #1
    5154:	e5940018 	ldr	r0, [r4, #24]
    5158:	e06101a0 	rsb	r0, r1, r0, lsr #3
    515c:	e1866300 	orr	r6, r6, r0, lsl #6
    5160:	e594000c 	ldr	r0, [r4, #12]
    5164:	e2400001 	sub	r0, r0, #1
    5168:	e1866500 	orr	r6, r6, r0, lsl #10
    516c:	e3866a01 	orr	r6, r6, #4096	; 0x1000
    5170:	e3866a02 	orr	r6, r6, #8192	; 0x2000
    5174:	e59f01a4 	ldr	r0, =DRAMC_IO_BASE
    5178:	e5806004 	str	r6, [r0, #SDR_DCR]
    517c:	e5940020 	ldr	r0, [r4, #32]
    5180:	e7f36450 	ubfx	r6, r0, #8, #20
    5184:	e5940020 	ldr	r0, [r4, #32]
    5188:	e20000ff 	and	r0, r0, #255	; 0xff
    518c:	e1866a00 	orr	r6, r6, r0, lsl #20
    5190:	e5940020 	ldr	r0, [r4, #32]
    5194:	e200020f 	and	r0, r0, #0xf0000000
    5198:	e1866000 	orr	r6, r6, r0
    519c:	e59f017c 	ldr	r0, =DRAMC_IO_BASE
    51a0:	e58060a8 	str	r6, [r0, #SDR_ZQCR0]	; 0xa8
    51a4:	e3a00001 	mov	r0, #1
    51a8:	ebffffa7 	bl	0x504c
    51ac:	e3a00010 	mov	r0, #16
    51b0:	ebfffe9e 	bl	sdelay
    51b4:	e320f000 	nop	{0}
    51b8:	e59f0160 	ldr	r0, =DRAMC_IO_BASE
    51bc:	e5900000 	ldr	r0, [r0, #SDR_CCR]
    51c0:	e3100102 	tst	r0, #0x80000000
    51c4:	1afffffb 	bne	0x51b8
    51c8:	ebfffed8 	bl	mctl_enable_dllx
    51cc:	e5940004 	ldr	r0, [r4, #4]
    51d0:	ebffff92 	bl	0x5020
    51d4:	e594002c 	ldr	r0, [r4, #44]	; 0x2c
    51d8:	e59f1140 	ldr	r1, =DRAMC_IO_BASE
    51dc:	e5810014 	str	r0, [r1, #SDR_TPR0]
    51e0:	e5940030 	ldr	r0, [r4, #48]	; 0x30
    51e4:	e5810018 	str	r0, [r1, #SDR_TPR1]
    51e8:	e5940034 	ldr	r0, [r4, #52]	; 0x34
    51ec:	e581001c 	str	r0, [r1, #SDR_TPR2]
    51f0:	e5940008 	ldr	r0, [r4, #8]
    51f4:	e3500003 	cmp	r0, #3
    51f8:	1a000005 	bne	0x5214
    51fc:	e3a06a01 	mov	r6, #0x1000
    5200:	e594001c 	ldr	r0, [r4, #28]
    5204:	e2400004 	sub	r0, r0, #4
    5208:	e1866200 	orr	r6, r6, r0, lsl #4
    520c:	e3866c0a 	orr	r6, r6, #2560	; 0xa00
    5210:	ea000006 	b	0x5230
    5214:	e5940008 	ldr	r0, [r4, #8]
    5218:	e3500002 	cmp	r0, #2
    521c:	1a000003 	bne	0x5230
    5220:	e3a06002 	mov	r6, #2
    5224:	e594001c 	ldr	r0, [r4, #28]
    5228:	e1866200 	orr	r6, r6, r0, lsl #4
    522c:	e3866c0a 	orr	r6, r6, #2560	; 0xa00
    5230:	e59f00e8 	ldr	r0, =DRAMC_IO_BASE
    5234:	e58061f0 	str	r6, [r0, #496]	; 0x1f0
    5238:	e1a01000 	mov	r1, r0
    523c:	e5940044 	ldr	r0, [r4, #68]	; 0x44
    5240:	e58101f4 	str	r0, [r1, #500]	; 0x1f4
    5244:	e5940048 	ldr	r0, [r4, #72]	; 0x48
    5248:	e58101f8 	str	r0, [r1, #504]	; 0x1f8
    524c:	e594004c 	ldr	r0, [r4, #76]	; 0x4c
    5250:	e58101fc 	str	r0, [r1, #508]	; 0x1fc
    5254:	e1a00001 	mov	r0, r1
    5258:	e5906000 	ldr	r6, [r0]
    525c:	e3866901 	orr	r6, r6, #16384	; 0x4000
    5260:	e3c66802 	bic	r6, r6, #131072	; 0x20000
    5264:	e5806000 	str	r6, [r0]
    5268:	e5906000 	ldr	r6, [r0]
    526c:	e3866102 	orr	r6, r6, #-2147483648	; 0x80000000
    5270:	e5806000 	str	r6, [r0]
    5274:	e320f000 	nop	{0}
    5278:	e59f00a0 	ldr	r0, =DRAMC_IO_BASE
    527c:	e5900000 	ldr	r0, [r0]
    5280:	e3100102 	tst	r0, #-2147483648	; 0x80000000
    5284:	1afffffb 	bne	0x5278
    5288:	ebfffe89 	bl	0x4cb4
    528c:	ebffff52 	bl	0x4fdc
    5290:	e1a05000 	mov	r5, r0
    5294:	e3550000 	cmp	r5, #0
    5298:	aa000001 	bge	0x52a4
    529c:	e3a00000 	mov	r0, #0
    52a0:	eaffff78 	b	0x5088
    52a4:	ebfffeef 	bl	0x4e68
    52a8:	ebffff26 	bl	0x4f48
    52ac:	eaffff75 	b	0x5088
    52b0:	e3a00000 	mov	r0, #0
    52b4:	e12fff1e 	bx	lr
    52b8:	e92d4070 	push	{r4, r5, r6, lr}
    52bc:	e24dd050 	sub	sp, sp, #80	; 0x50
    52c0:	e1a06000 	mov	r6, r0
    52c4:	e1a0000d 	mov	r0, sp
    52c8:	ebfff273 	bl	0x1c9c
    52cc:	e59d0004 	ldr	r0, [sp, #4]
    52d0:	e3500e7d 	cmp	r0, #2000	; 0x7d0
    52d4:	9a000003 	bls	0x52e8
    52d8:	e59d0004 	ldr	r0, [sp, #4]
    52dc:	e59f104c 	ldr	r1, =0x5330
    52e0:	ebfffe4b 	bl	0x4c14
    52e4:	e58d0004 	str	r0, [sp, #4]
    52e8:	e3a05000 	mov	r5, #0
    52ec:	e3a04000 	mov	r4, #0
    52f0:	ea000003 	b	0x5304
    52f4:	e1a0000d 	mov	r0, sp
    52f8:	ebffff5d 	bl	0x5074
    52fc:	e1a05000 	mov	r5, r0
    5300:	e2844001 	add	r4, r4, #1
    5304:	e3550000 	cmp	r5, #0
    5308:	1a000001 	bne	0x5314
    530c:	e3540004 	cmp	r4, #4
    5310:	3afffff7 	bcc	0x52f4
    5314:	e1a00005 	mov	r0, r5
    5318:	e28dd050 	add	sp, sp, #80	; 0x50
    531c:	e8bd8070 	pop	{r4, r5, r6, pc}

    5320:	01c01000	; DRAMC_IO_BASE

    5328:	01c20000	; CCM_IO_BASE
    532c:	82000001
    5330:	000f4240

    5334:	e3a00000 	mov	r0, #0
    5338:	ee070f15 	mcr	15, 0, r0, cr7, cr5, {0}
    533c:	ee110f10 	mrc	15, 0, r0, cr1, cr0, {0}
    5340:	e3800a01 	orr	r0, r0, #4096	; 0x1000
    5344:	ee010f10 	mcr	15, 0, r0, cr1, cr0, {0}
    5348:	e1a0f00e 	mov	pc, lr
    534c:	e3a00000 	mov	r0, #0
    5350:	ee070f15 	mcr	15, 0, r0, cr7, cr5, {0}
    5354:	ee110f10 	mrc	15, 0, r0, cr1, cr0, {0}
    5358:	e3800a01 	orr	r0, r0, #4096	; 0x1000
    535c:	ee010f10 	mcr	15, 0, r0, cr1, cr0, {0}
    5360:	e1a0f00e 	mov	pc, lr
    5364:	e3a00000 	mov	r0, #0
    5368:	ee070f15 	mcr	15, 0, r0, cr7, cr5, {0}
    536c:	ee110f10 	mrc	15, 0, r0, cr1, cr0, {0}
    5370:	e3c00004 	bic	r0, r0, #4
    5374:	ee010f10 	mcr	15, 0, r0, cr1, cr0, {0}
    5378:	e1a0f00e 	mov	pc, lr
    537c:	e3a00000 	mov	r0, #0
    5380:	ee070f15 	mcr	15, 0, r0, cr7, cr5, {0}
    5384:	ee110f10 	mrc	15, 0, r0, cr1, cr0, {0}
    5388:	e3c00004 	bic	r0, r0, #4
    538c:	ee010f10 	mcr	15, 0, r0, cr1, cr0, {0}
    5390:	e1a0f00e 	mov	pc, lr
    5394:	ee300f30 	mrc	15, 1, r0, cr0, cr0, {1}
    5398:	e2103407 	ands	r3, r0, #117440512	; 0x7000000
    539c:	e1a03ba3 	lsr	r3, r3, #23
    53a0:	0a00001a 	beq	0x5410
    53a4:	e3a0a000 	mov	sl, #0
    53a8:	e08a20aa 	add	r2, sl, sl, lsr #1
    53ac:	e1a01230 	lsr	r1, r0, r2
    53b0:	e2011007 	and	r1, r1, #7
    53b4:	e3510002 	cmp	r1, #2
    53b8:	ba000011 	blt	0x5404
    53bc:	ee40af10 	mcr	15, 2, sl, cr0, cr0, {0}
    53c0:	f57ff06f 	isb	sy
    53c4:	ee301f10 	mrc	15, 1, r1, cr0, cr0, {0}
    53c8:	e2012007 	and	r2, r1, #7
    53cc:	e2822004 	add	r2, r2, #4
    53d0:	e30043ff 	movw	r4, #1023	; 0x3ff
    53d4:	e01441a1 	ands	r4, r4, r1, lsr #3
    53d8:	e16f5f14 	clz	r5, r4
    53dc:	e3077fff 	movw	r7, #32767	; 0x7fff
    53e0:	e01776a1 	ands	r7, r7, r1, lsr #13
    53e4:	e1a09004 	mov	r9, r4
    53e8:	e18ab519 	orr	fp, sl, r9, lsl r5
    53ec:	e18bb217 	orr	fp, fp, r7, lsl r2
    53f0:	ee07bf56 	mcr	15, 0, fp, cr7, cr6, {2}
    53f4:	e2599001 	subs	r9, r9, #1
    53f8:	aafffffa 	bge	0x53e8
    53fc:	e2577001 	subs	r7, r7, #1
    5400:	aafffff7 	bge	0x53e4
    5404:	e28aa002 	add	sl, sl, #2
    5408:	e153000a 	cmp	r3, sl
    540c:	caffffe5 	bgt	0x53a8
    5410:	e3a0a000 	mov	sl, #0
    5414:	ee40af10 	mcr	15, 2, sl, cr0, cr0, {0}
    5418:	f57ff06f 	isb	sy
    541c:	e1a0f00e 	mov	pc, lr
    5420:	e3a00000 	mov	r0, #0
    5424:	ee070f15 	mcr	15, 0, r0, cr7, cr5, {0}
    5428:	e1a0f00e 	mov	pc, lr
    542c:	e92d4001 	push	{r0, lr}
    5430:	ebffffff 	bl	0x5434
    5434:	ebffffff 	bl	0x5438
    5438:	ebffffff 	bl	0x543c
    543c:	ebffffff 	bl	0x5440
    5440:	ebffffff 	bl	0x5444
    5444:	ebffffff 	bl	0x5448
    5448:	ebffffff 	bl	0x544c
    544c:	ebffffff 	bl	0x5450
    5450:	ee110f10 	mrc	15, 0, r0, cr1, cr0, {0}
    5454:	e3800b02 	orr	r0, r0, #2048	; 0x800
    5458:	ee010f10 	mcr	15, 0, r0, cr1, cr0, {0}
    545c:	e8bd4001 	pop	{r0, lr}
    5460:	e1a0f00e 	mov	pc, lr
    5464:	e92d5fff 	push	{r0, r1, r2, r3, r4, r5, r6, r7, r8, r9, sl, fp, ip, lr}
    5468:	e3a02040 	mov	r2, #64	; 0x40
    546c:	e2423001 	sub	r3, r2, #1
    5470:	e1c00003 	bic	r0, r0, r3
    5474:	ee070f3b 	mcr	15, 0, r0, cr7, cr11, {1}
    5478:	f57ff04f 	dsb	sy
    547c:	ee070f35 	mcr	15, 0, r0, cr7, cr5, {1}
    5480:	e0800002 	add	r0, r0, r2
    5484:	e1500001 	cmp	r0, r1
    5488:	3afffff9 	bcc	0x5474
    548c:	e3a00000 	mov	r0, #0
    5490:	ee070fd5 	mcr	15, 0, r0, cr7, cr5, {6}
    5494:	f57ff04f 	dsb	sy
    5498:	f57ff06f 	isb	sy
    549c:	e8bd5fff 	pop	{r0, r1, r2, r3, r4, r5, r6, r7, r8, r9, sl, fp, ip, lr}
    54a0:	e1a0f00e 	mov	pc, lr
    54a4:	e3a02040 	mov	r2, #64	; 0x40
    54a8:	e2423001 	sub	r3, r2, #1
    54ac:	e1c00003 	bic	r0, r0, r3
    54b0:	ee070f3e 	mcr	15, 0, r0, cr7, cr14, {1}
    54b4:	e0800002 	add	r0, r0, r2
    54b8:	e1500001 	cmp	r0, r1
    54bc:	3afffffb 	bcc	0x54b0
    54c0:	f57ff04f 	dsb	sy
    54c4:	e1a0f00e 	mov	pc, lr
    54c8:	e3a02040 	mov	r2, #64	; 0x40
    54cc:	e2423001 	sub	r3, r2, #1
    54d0:	e1c00003 	bic	r0, r0, r3
    54d4:	ee070f3a 	mcr	15, 0, r0, cr7, cr10, {1}
    54d8:	e0800002 	add	r0, r0, r2
    54dc:	e1500001 	cmp	r0, r1
    54e0:	3afffffb 	bcc	0x54d4
    54e4:	f57ff04f 	dsb	sy
    54e8:	e1a0f00e 	mov	pc, lr
    54ec:	e1a0f000 	mov	pc, r0
    54f0:	ee020f10 	mcr	15, 0, r0, cr2, cr0, {0}
    54f4:	e1a0f00e 	mov	pc, lr
    54f8:	ee130f10 	mrc	15, 0, r0, cr3, cr0, {0}
    54fc:	e59f0010 	ldr	r0, =0x5514
    5500:	ee030f10 	mcr	15, 0, r0, cr3, cr0, {0}
    5504:	e1a0f00e 	mov	pc, lr
    5508:	e3a00000 	mov	r0, #0
    550c:	ee080f17 	mcr	15, 0, r0, cr8, cr7, {0}
    5510:	e1a0f00e 	mov	pc, lr

    5514:	55555555
    5518:	0bd02b75
    551c:	62d15ca3
    5520:	07e91c93
    5524:	3a722162
    5528:	67f90d67
    552c:	077d1be7
    5530:	0dac032f
    5534:	24362716
    5538:	15107922
    553c:	52873860
    5540:	4252480f
    5544:	5a2d1789
    5548:	5e102a49
    554c:	4b4e437f
    5550:	216e2f45
    5554:	71305cb7
    5558:	60e42a3f
    555c:	0ef04dc9
    5560:	1bb90f52
    5564:	7a566211
    5568:	4ea7226d
    556c:	36926f36
    5570:	0c6238bf
    5574:	4c5505eb
    5578:	728c60f4
    557c:	20373b6f
    5580:	09367f69
    5584:	4ceb651a
    5588:	79f36218
    558c:	18d9383f
    5590:	5c824f05
    5594:	6f172912
    5598:	59386856
    559c:	61ab1007
    55a0:	57c23e7f
    55a4:	4f62542f
    55a8:	2eac7454
    55ac:	42d47739
    55b0:	435a2f90
    55b4:	20642e52
    55b8:	66ad637c
    55bc:	0bad2c90
    55c0:	0029759c
    55c4:	71260986
    55c8:	16051ca7
    55cc:	27f5386a
    55d0:	6d751380
    55d4:	0f8e24c3
    55d8:	14182b7a
    55dc:	7dc11fd1
    55e0:	43af2d8e
    55e4:	7da32267
    55e8:	13384e3d
    55ec:	454d50db
    55f0:	40a3764d
    55f4:	262b42e6
    55f8:	1aea2d2e
    55fc:	173d2e17
    5600:	71bf3a6e
    5604:	0a5d25f9
    5608:	0fbe7c57
    560c:	493946ce
    5610:	37bb6b17
    5614:	76db3e91

    5618:	"wrong chip number ,rb_mode = %d, bank = %d, chip = %d, chip info = %x\n",0
    5660:	"[Read_single_page] NFC_ReadRetry %d cycles, chip = %d, block = %d, page = %d, RetryCount = %d\n",0
    56c4:	"PHY_GetDefaultParam: chip 0x%x, Read Retry Default Value is 0x%x, 0x%x, 0x%x, 0x%x\n",0
    571c:	"PHY_SetDefaultParam: chip 0x%x, Read Retry Default Value is 0x%x, 0x%x, 0x%x, 0x%x\n";0
    5774:	"PHY_SetDefaultParam: chip 0x%x, Read Default Value After Set value is 0x%x, 0x%x, 0x%x, 0x%x\n",0
    57d4:	"PHY_SynchBank : read status invalid ,chip = %x, bank = %x, cmd value = %x, status = %x\n",0
    582c:	"PHY_SynchBank : wait nand ready timeout,chip = %x, bank = %x, cmd value = %x, status = %x\n";0
    5888:	"PHY_SynchBank : last W/E operation fail,chip = %x, bank = %x, cmd value = %x, status = %x\n",0
    58e4:	"[SCAN_DBG] get nand id from boot0 is 0x%x 0x%x 0x%x 0x%x 0x%x 0x%x 0x%x 0x%x.\n",0
    5934:	"[SCAN_DBG] =======================================================\n\n",0

    597c:	0000005c
    5980:	000000c5
    5984:	00060000
    5988:	0006000a
    598c:	fffd0000
    5990:	fff8fff9
    5994:	fffa0000
    5998:	fff1fff3
    599c:	fff50000
    59a0:	ffe9ffec
    59a4:	00000000
    59a8:	ffe2ffe6
    59ac:	00000000
    59b0:	ffdbffe0
    59b4:	00060000
    59b8:	0006000a
    59bc:	fffd0000
    59c0:	fff8fff9
    59c4:	fffa0000
    59c8:	fff1fff3
    59cc:	fff70000
    59d0:	ffe9ffec
    59d4:	00000000
    59d8:	ffe2ffe6
    59dc:	00000000
    59e0:	ffdbffe0
    59e4:	007c0004
    59e8:	00740078
    59ec:	00000008
    59f0:	00000000
    59f4:	00000000
    59f8:	000a0005
    59fc:	00000000
    5a00:	00000028
    5a04:	00d800ec
    5a08:	00f500ed
    5a0c:	00e600ed
    5a10:	000f000a
    5a14:	00000005
    5a18:	000a000f
    5a1c:	00ec00fb
    5a20:	00ef00e8
    5a24:	00dc00e8
    5a28:	00fb00f1
    5a2c:	00f000fe
    5a30:	0000000a
    5a34:	00ec00fb
    5a38:	00e200d0
    5a3c:	00c200d0
    5a40:	000f0014
    5a44:	00ec00fb
    5a48:	00fb00e8
    5a4c:	00dc00e8
    5a50:	0014001e
    5a54:	00ec00fb
    5a58:	00ff00fb
    5a5c:	00f800fb
    5a60:	000c0007
    5a64:	00000002
hpcr_value:
    5a68:	00000000
    5a6c:	00000000
    5a70:	00000000
    5a74:	00000000
    5a78:	00000000
    5a7c:	00000000
    5a80:	00000000
    5a84:	00000000
    5a88:	00000000
    5a8c:	00000000
    5a90:	00000000
    5a94:	00000000
    5a98:	00000000
    5a9c:	00000000
    5aa0:	00000000
    5aa4:	00000000
    5aa8:	00001031
    5aac:	00001031
    5ab0:	00000735
    5ab4:	00001035
    5ab8:	00001035
    5abc:	00000731
    5ac0:	00001031
    5ac4:	00000000
    5ac8:	00000301
    5acc:	00000301
    5ad0:	00000301
    5ad4:	00000301
    5ad8:	00000301
    5adc:	00000301
    5ae0:	00000301
    5ae4:	00000000
    5ae8:	00000000
    5aec:	00000000
    5af0:	00000000
    5af4:	00000000
    5af8:	00000000
    5afc:	00000000
    5b00:	00000000
    5b04:	01c02300
    5b08:	00000000
    5b0c:	00000000
    5b10:	00000000
    5b14:	00000000
    5b18:	00000000
    5b1c:	00000000
    5b20:	00000000
    5b24:	00000000
    5b28:	00000000
    5b2c:	00000000
    5b30:	00000000
    5b34:	00000000
    5b38: END (FF padded)
